Archive member included because of file (symbol)

/opt/netsurf/m68k-unknown-amigaos/env/lib/libjpeg.a(jdmarker.o)
                              build-newer-morphos/image_jpeg.o (_jpeg_resync_to_restart)
/opt/netsurf/m68k-unknown-amigaos/env/lib/libjpeg.a(jerror.o)
                              build-newer-morphos/image_jpeg.o (_jpeg_std_error)
/opt/netsurf/m68k-unknown-amigaos/env/lib/libjpeg.a(jdapimin.o)
                              build-newer-morphos/image_jpeg.o (_jpeg_CreateDecompress)
/opt/netsurf/m68k-unknown-amigaos/env/lib/libjpeg.a(jdapistd.o)
                              build-newer-morphos/image_jpeg.o (_jpeg_start_decompress)
/opt/netsurf/m68k-unknown-amigaos/env/lib/libjpeg.a(jcomapi.o)
                              /opt/netsurf/m68k-unknown-amigaos/env/lib/libjpeg.a(jdapimin.o) (_jpeg_abort)
/opt/netsurf/m68k-unknown-amigaos/env/lib/libjpeg.a(jutils.o)
                              /opt/netsurf/m68k-unknown-amigaos/env/lib/libjpeg.a(jdmarker.o) (_jpeg_natural_order)
/opt/netsurf/m68k-unknown-amigaos/env/lib/libjpeg.a(jmemmgr.o)
                              /opt/netsurf/m68k-unknown-amigaos/env/lib/libjpeg.a(jdapimin.o) (_jinit_memory_mgr)
/opt/netsurf/m68k-unknown-amigaos/env/lib/libjpeg.a(jdinput.o)
                              /opt/netsurf/m68k-unknown-amigaos/env/lib/libjpeg.a(jdapimin.o) (_jinit_input_controller)
/opt/netsurf/m68k-unknown-amigaos/env/lib/libjpeg.a(jdmaster.o)
                              /opt/netsurf/m68k-unknown-amigaos/env/lib/libjpeg.a(jdapistd.o) (_jinit_master_decompress)
/opt/netsurf/m68k-unknown-amigaos/env/lib/libjpeg.a(jmemnobs.o)
                              /opt/netsurf/m68k-unknown-amigaos/env/lib/libjpeg.a(jmemmgr.o) (_jpeg_get_small)
/opt/netsurf/m68k-unknown-amigaos/env/lib/libjpeg.a(jquant1.o)
                              /opt/netsurf/m68k-unknown-amigaos/env/lib/libjpeg.a(jdmaster.o) (_jinit_1pass_quantizer)
/opt/netsurf/m68k-unknown-amigaos/env/lib/libjpeg.a(jquant2.o)
                              /opt/netsurf/m68k-unknown-amigaos/env/lib/libjpeg.a(jdmaster.o) (_jinit_2pass_quantizer)
/opt/netsurf/m68k-unknown-amigaos/env/lib/libjpeg.a(jdmerge.o)
                              /opt/netsurf/m68k-unknown-amigaos/env/lib/libjpeg.a(jdmaster.o) (_jinit_merged_upsampler)
/opt/netsurf/m68k-unknown-amigaos/env/lib/libjpeg.a(jdcolor.o)
                              /opt/netsurf/m68k-unknown-amigaos/env/lib/libjpeg.a(jdmaster.o) (_jinit_color_deconverter)
/opt/netsurf/m68k-unknown-amigaos/env/lib/libjpeg.a(jdsample.o)
                              /opt/netsurf/m68k-unknown-amigaos/env/lib/libjpeg.a(jdmaster.o) (_jinit_upsampler)
/opt/netsurf/m68k-unknown-amigaos/env/lib/libjpeg.a(jdpostct.o)
                              /opt/netsurf/m68k-unknown-amigaos/env/lib/libjpeg.a(jdmaster.o) (_jinit_d_post_controller)
/opt/netsurf/m68k-unknown-amigaos/env/lib/libjpeg.a(jddctmgr.o)
                              /opt/netsurf/m68k-unknown-amigaos/env/lib/libjpeg.a(jdmaster.o) (_jinit_inverse_dct)
/opt/netsurf/m68k-unknown-amigaos/env/lib/libjpeg.a(jdarith.o)
                              /opt/netsurf/m68k-unknown-amigaos/env/lib/libjpeg.a(jdmaster.o) (_jinit_arith_decoder)
/opt/netsurf/m68k-unknown-amigaos/env/lib/libjpeg.a(jdhuff.o)
                              /opt/netsurf/m68k-unknown-amigaos/env/lib/libjpeg.a(jdmaster.o) (_jinit_huff_decoder)
/opt/netsurf/m68k-unknown-amigaos/env/lib/libjpeg.a(jdcoefct.o)
                              /opt/netsurf/m68k-unknown-amigaos/env/lib/libjpeg.a(jdmaster.o) (_jinit_d_coef_controller)
/opt/netsurf/m68k-unknown-amigaos/env/lib/libjpeg.a(jdmainct.o)
                              /opt/netsurf/m68k-unknown-amigaos/env/lib/libjpeg.a(jdmaster.o) (_jinit_d_main_controller)
/opt/netsurf/m68k-unknown-amigaos/env/lib/libjpeg.a(jidctint.o)
                              /opt/netsurf/m68k-unknown-amigaos/env/lib/libjpeg.a(jddctmgr.o) (_jpeg_idct_islow)
/opt/netsurf/m68k-unknown-amigaos/env/lib/libjpeg.a(jidctfst.o)
                              /opt/netsurf/m68k-unknown-amigaos/env/lib/libjpeg.a(jddctmgr.o) (_jpeg_idct_ifast)
/opt/netsurf/m68k-unknown-amigaos/env/lib/libjpeg.a(jidctflt.o)
                              /opt/netsurf/m68k-unknown-amigaos/env/lib/libjpeg.a(jddctmgr.o) (_jpeg_idct_float)
/opt/netsurf/m68k-unknown-amigaos/env/lib/libjpeg.a(jaricom.o)
                              /opt/netsurf/m68k-unknown-amigaos/env/lib/libjpeg.a(jdarith.o) (_jpeg_aritab)
/opt/netsurf/m68k-unknown-amigaos/env/lib/libz.a(inflate.o)
                              build-newer-morphos/mui_loadpng.o (_inflateInit2_)
/opt/netsurf/m68k-unknown-amigaos/env/lib/libz.a(gzlib.o)
                              build-newer-morphos/utils_messages.o (_gzopen)
/opt/netsurf/m68k-unknown-amigaos/env/lib/libz.a(gzclose.o)
                              build-newer-morphos/utils_messages.o (_gzclose)
/opt/netsurf/m68k-unknown-amigaos/env/lib/libz.a(gzread.o)
                              build-newer-morphos/utils_messages.o (_gzgets)
/opt/netsurf/m68k-unknown-amigaos/env/lib/libz.a(zutil.o)
                              /opt/netsurf/m68k-unknown-amigaos/env/lib/libz.a(inflate.o) (_zcalloc)
/opt/netsurf/m68k-unknown-amigaos/env/lib/libz.a(crc32.o)
                              /opt/netsurf/m68k-unknown-amigaos/env/lib/libz.a(inflate.o) (_crc32)
/opt/netsurf/m68k-unknown-amigaos/env/lib/libz.a(adler32.o)
                              /opt/netsurf/m68k-unknown-amigaos/env/lib/libz.a(inflate.o) (_adler32)
/opt/netsurf/m68k-unknown-amigaos/env/lib/libz.a(inftrees.o)
                              /opt/netsurf/m68k-unknown-amigaos/env/lib/libz.a(inflate.o) (_inflate_table)
/opt/netsurf/m68k-unknown-amigaos/env/lib/libz.a(inffast.o)
                              /opt/netsurf/m68k-unknown-amigaos/env/lib/libz.a(inflate.o) (_inflate_fast)
/opt/netsurf/m68k-unknown-amigaos/env/lib/libz.a(gzwrite.o)
                              /opt/netsurf/m68k-unknown-amigaos/env/lib/libz.a(gzclose.o) (_gzclose_w)
/opt/netsurf/m68k-unknown-amigaos/env/lib/libz.a(deflate.o)
                              /opt/netsurf/m68k-unknown-amigaos/env/lib/libz.a(gzwrite.o) (_deflateInit2_)
/opt/netsurf/m68k-unknown-amigaos/env/lib/libz.a(trees.o)
                              /opt/netsurf/m68k-unknown-amigaos/env/lib/libz.a(deflate.o) (__dist_code)
lib/libmui-5.a(libmui.o)      build-newer-morphos/mui_applicationclass.o (_MUI_NewObject)
/mnt/e/usr/local/amiga/m68k-amigaos/clib/extra/ns-lib/libasyncio.a(CloseAsync.o)
                              build-newer-morphos/mui_fetch.o (_CloseAsync)
/mnt/e/usr/local/amiga/m68k-amigaos/clib/extra/ns-lib/libasyncio.a(ReadAsync.o)
                              build-newer-morphos/mui_fetch_file.o (_ReadAsync)
/mnt/e/usr/local/amiga/m68k-amigaos/clib/extra/ns-lib/libasyncio.a(OpenAsync.o)
                              build-newer-morphos/mui_fetch_file.o (_OpenAsync)
/mnt/e/usr/local/amiga/m68k-amigaos/clib/extra/ns-lib/libasyncio.a(WriteAsync.o)
                              build-newer-morphos/mui_gui.o (_WriteAsync)
/mnt/e/usr/local/amiga/m68k-amigaos/clib/extra/ns-lib/libasyncio.a(WaitPacket.o)
                              /mnt/e/usr/local/amiga/m68k-amigaos/clib/extra/ns-lib/libasyncio.a(CloseAsync.o) (_AS_WaitPacket)
/mnt/e/usr/local/amiga/m68k-amigaos/clib/extra/ns-lib/libasyncio.a(SendPacket.o)
                              /mnt/e/usr/local/amiga/m68k-amigaos/clib/extra/ns-lib/libasyncio.a(ReadAsync.o) (_AS_SendPacket)
/mnt/e/usr/local/amiga/m68k-amigaos/clib/extra/ns-lib/libasyncio.a(OpenAsyncFH.o)
                              /mnt/e/usr/local/amiga/m68k-amigaos/clib/extra/ns-lib/libasyncio.a(OpenAsync.o) (_AS_OpenAsyncFH)
/mnt/e/usr/local/amiga/m68k-amigaos/clib/extra/ns-lib/libxml2.a(SAX.o)
                              (--whole-archive)
/mnt/e/usr/local/amiga/m68k-amigaos/clib/extra/ns-lib/libxml2.a(entities.o)
                              (--whole-archive)
/mnt/e/usr/local/amiga/m68k-amigaos/clib/extra/ns-lib/libxml2.a(encoding.o)
                              (--whole-archive)
/mnt/e/usr/local/amiga/m68k-amigaos/clib/extra/ns-lib/libxml2.a(error.o)
                              (--whole-archive)
/mnt/e/usr/local/amiga/m68k-amigaos/clib/extra/ns-lib/libxml2.a(parserInternals.o)
                              (--whole-archive)
/mnt/e/usr/local/amiga/m68k-amigaos/clib/extra/ns-lib/libxml2.a(parser.o)
                              (--whole-archive)
/mnt/e/usr/local/amiga/m68k-amigaos/clib/extra/ns-lib/libxml2.a(tree.o)
                              (--whole-archive)
/mnt/e/usr/local/amiga/m68k-amigaos/clib/extra/ns-lib/libxml2.a(hash.o)
                              (--whole-archive)
/mnt/e/usr/local/amiga/m68k-amigaos/clib/extra/ns-lib/libxml2.a(list.o)
                              (--whole-archive)
/mnt/e/usr/local/amiga/m68k-amigaos/clib/extra/ns-lib/libxml2.a(xmlIO.o)
                              (--whole-archive)
/mnt/e/usr/local/amiga/m68k-amigaos/clib/extra/ns-lib/libxml2.a(xmlmemory.o)
                              (--whole-archive)
/mnt/e/usr/local/amiga/m68k-amigaos/clib/extra/ns-lib/libxml2.a(uri.o)
                              (--whole-archive)
/mnt/e/usr/local/amiga/m68k-amigaos/clib/extra/ns-lib/libxml2.a(valid.o)
                              (--whole-archive)
/mnt/e/usr/local/amiga/m68k-amigaos/clib/extra/ns-lib/libxml2.a(xlink.o)
                              (--whole-archive)
/mnt/e/usr/local/amiga/m68k-amigaos/clib/extra/ns-lib/libxml2.a(HTMLparser.o)
                              (--whole-archive)
/mnt/e/usr/local/amiga/m68k-amigaos/clib/extra/ns-lib/libxml2.a(HTMLtree.o)
                              (--whole-archive)
/mnt/e/usr/local/amiga/m68k-amigaos/clib/extra/ns-lib/libxml2.a(debugXML.o)
                              (--whole-archive)
/mnt/e/usr/local/amiga/m68k-amigaos/clib/extra/ns-lib/libxml2.a(xpath.o)
                              (--whole-archive)
/mnt/e/usr/local/amiga/m68k-amigaos/clib/extra/ns-lib/libxml2.a(xpointer.o)
                              (--whole-archive)
/mnt/e/usr/local/amiga/m68k-amigaos/clib/extra/ns-lib/libxml2.a(xinclude.o)
                              (--whole-archive)
/mnt/e/usr/local/amiga/m68k-amigaos/clib/extra/ns-lib/libxml2.a(nanohttp.o)
                              (--whole-archive)
/mnt/e/usr/local/amiga/m68k-amigaos/clib/extra/ns-lib/libxml2.a(nanoftp.o)
                              (--whole-archive)
/mnt/e/usr/local/amiga/m68k-amigaos/clib/extra/ns-lib/libxml2.a(catalog.o)
                              (--whole-archive)
/mnt/e/usr/local/amiga/m68k-amigaos/clib/extra/ns-lib/libxml2.a(globals.o)
                              (--whole-archive)
/mnt/e/usr/local/amiga/m68k-amigaos/clib/extra/ns-lib/libxml2.a(threads.o)
                              (--whole-archive)
/mnt/e/usr/local/amiga/m68k-amigaos/clib/extra/ns-lib/libxml2.a(c14n.o)
                              (--whole-archive)
/mnt/e/usr/local/amiga/m68k-amigaos/clib/extra/ns-lib/libxml2.a(xmlstring.o)
                              (--whole-archive)
/mnt/e/usr/local/amiga/m68k-amigaos/clib/extra/ns-lib/libxml2.a(buf.o)
                              (--whole-archive)
/mnt/e/usr/local/amiga/m68k-amigaos/clib/extra/ns-lib/libxml2.a(xmlregexp.o)
                              (--whole-archive)
/mnt/e/usr/local/amiga/m68k-amigaos/clib/extra/ns-lib/libxml2.a(xmlschemas.o)
                              (--whole-archive)
/mnt/e/usr/local/amiga/m68k-amigaos/clib/extra/ns-lib/libxml2.a(xmlschemastypes.o)
                              (--whole-archive)
/mnt/e/usr/local/amiga/m68k-amigaos/clib/extra/ns-lib/libxml2.a(xmlunicode.o)
                              (--whole-archive)
/mnt/e/usr/local/amiga/m68k-amigaos/clib/extra/ns-lib/libxml2.a(xmlreader.o)
                              (--whole-archive)
/mnt/e/usr/local/amiga/m68k-amigaos/clib/extra/ns-lib/libxml2.a(relaxng.o)
                              (--whole-archive)
/mnt/e/usr/local/amiga/m68k-amigaos/clib/extra/ns-lib/libxml2.a(dict.o)
                              (--whole-archive)
/mnt/e/usr/local/amiga/m68k-amigaos/clib/extra/ns-lib/libxml2.a(SAX2.o)
                              (--whole-archive)
/mnt/e/usr/local/amiga/m68k-amigaos/clib/extra/ns-lib/libxml2.a(xmlwriter.o)
                              (--whole-archive)
/mnt/e/usr/local/amiga/m68k-amigaos/clib/extra/ns-lib/libxml2.a(legacy.o)
                              (--whole-archive)
/mnt/e/usr/local/amiga/m68k-amigaos/clib/extra/ns-lib/libxml2.a(chvalid.o)
                              (--whole-archive)
/mnt/e/usr/local/amiga/m68k-amigaos/clib/extra/ns-lib/libxml2.a(pattern.o)
                              (--whole-archive)
/mnt/e/usr/local/amiga/m68k-amigaos/clib/extra/ns-lib/libxml2.a(xmlsave.o)
                              (--whole-archive)
/mnt/e/usr/local/amiga/m68k-amigaos/clib/extra/ns-lib/libxml2.a(xmlmodule.o)
                              (--whole-archive)
/mnt/e/usr/local/amiga/m68k-amigaos/clib/extra/ns-lib/libxml2.a(schematron.o)
                              (--whole-archive)
/mnt/e/usr/local/amiga/m68k-amigaos/clib/extra/ns-lib/libxml2.a(xzlib.o)
                              (--whole-archive)
lib/libnsgif-0.0.3.a(src_libnsgif.o)
                              (--whole-archive)
lib/libnsbmp-0.0.2.a(src_libnsbmp.o)
                              (--whole-archive)
/opt/netsurf/m68k-unknown-amigaos/env/lib/libtre.a(regexec.o)
                              build-newer-morphos/content_fetchcache.o (_tre_regexec)
/opt/netsurf/m68k-unknown-amigaos/env/lib/libtre.a(regcomp.o)
                              build-newer-morphos/utils_utils.o (_tre_regcomp)
/opt/netsurf/m68k-unknown-amigaos/env/lib/libtre.a(regerror.o)
                              build-newer-morphos/utils_utils.o (_tre_regerror)
/opt/netsurf/m68k-unknown-amigaos/env/lib/libtre.a(tre-match-backtrack.o)
                              /opt/netsurf/m68k-unknown-amigaos/env/lib/libtre.a(regexec.o) (_tre_tnfa_run_backtrack)
/opt/netsurf/m68k-unknown-amigaos/env/lib/libtre.a(tre-match-approx.o)
                              /opt/netsurf/m68k-unknown-amigaos/env/lib/libtre.a(regexec.o) (_tre_tnfa_run_approx)
/opt/netsurf/m68k-unknown-amigaos/env/lib/libtre.a(tre-match-parallel.o)
                              /opt/netsurf/m68k-unknown-amigaos/env/lib/libtre.a(regexec.o) (_tre_tnfa_run_parallel)
/opt/netsurf/m68k-unknown-amigaos/env/lib/libtre.a(tre-compile.o)
                              /opt/netsurf/m68k-unknown-amigaos/env/lib/libtre.a(regcomp.o) (_tre_compile)
/opt/netsurf/m68k-unknown-amigaos/env/lib/libtre.a(tre-mem.o)
                              /opt/netsurf/m68k-unknown-amigaos/env/lib/libtre.a(tre-match-backtrack.o) (_tre_mem_new_impl)
/opt/netsurf/m68k-unknown-amigaos/env/lib/libtre.a(tre-ast.o)
                              /opt/netsurf/m68k-unknown-amigaos/env/lib/libtre.a(tre-compile.o) (_tre_ast_new_node)
/opt/netsurf/m68k-unknown-amigaos/env/lib/libtre.a(tre-stack.o)
                              /opt/netsurf/m68k-unknown-amigaos/env/lib/libtre.a(tre-compile.o) (_tre_stack_new)
/opt/netsurf/m68k-unknown-amigaos/env/lib/libtre.a(tre-parse.o)
                              /opt/netsurf/m68k-unknown-amigaos/env/lib/libtre.a(tre-compile.o) (_tre_parse)
/opt/netsurf/m68k-unknown-amigaos/env/lib/libcurl.a(libcurl_la-parsedate.o)
                              build-newer-morphos/content_fetchcache.o (_curl_getdate)
/opt/netsurf/m68k-unknown-amigaos/env/lib/libcurl.a(libcurl_la-easy.o)
                              build-newer-morphos/content_fetchers_fetch_curl.o (_curl_global_init)
/opt/netsurf/m68k-unknown-amigaos/env/lib/libcurl.a(libcurl_la-multi.o)
                              /opt/netsurf/m68k-unknown-amigaos/env/lib/libcurl.a(libcurl_la-easy.o) (_Curl_multi_handle)
/opt/netsurf/m68k-unknown-amigaos/env/lib/libcurl.a(libcurl_la-setopt.o)
                              /opt/netsurf/m68k-unknown-amigaos/env/lib/libcurl.a(libcurl_la-easy.o) (_Curl_setstropt)
/opt/netsurf/m68k-unknown-amigaos/env/lib/libcurl.a(libcurl_la-version.o)
                              build-newer-morphos/content_fetchers_fetch_curl.o (_curl_version_info)
/opt/netsurf/m68k-unknown-amigaos/env/lib/libcurl.a(libcurl_la-slist.o)
                              build-newer-morphos/content_fetchers_fetch_curl.o (_curl_slist_append)
/opt/netsurf/m68k-unknown-amigaos/env/lib/libcurl.a(libcurl_la-formdata.o)
                              build-newer-morphos/content_fetchers_fetch_curl.o (_curl_formadd)
/opt/netsurf/m68k-unknown-amigaos/env/lib/libcurl.a(libcurl_la-strerror.o)
                              build-newer-morphos/content_fetchers_fetch_curl.o (_curl_multi_strerror)
/opt/netsurf/m68k-unknown-amigaos/env/lib/libcurl.a(libcurl_la-escape.o)
                              /opt/netsurf/m68k-unknown-amigaos/env/lib/libcurl.a(libcurl_la-setopt.o) (_Curl_urldecode)
/opt/netsurf/m68k-unknown-amigaos/env/lib/libcurl.a(libcurl_la-warnless.o)
                              /opt/netsurf/m68k-unknown-amigaos/env/lib/libcurl.a(libcurl_la-multi.o) (_curlx_uztosi)
/opt/netsurf/m68k-unknown-amigaos/env/lib/libcurl.a(libcurl_la-strcase.o)
                              /opt/netsurf/m68k-unknown-amigaos/env/lib/libcurl.a(libcurl_la-setopt.o) (_curl_strequal)
/opt/netsurf/m68k-unknown-amigaos/env/lib/libcurl.a(libcurl_la-curl_trc.o)
                              /opt/netsurf/m68k-unknown-amigaos/env/lib/libcurl.a(libcurl_la-easy.o) (_Curl_failf)
/opt/netsurf/m68k-unknown-amigaos/env/lib/libcurl.a(libcurl_la-vtls.o)
                              /opt/netsurf/m68k-unknown-amigaos/env/lib/libcurl.a(libcurl_la-curl_trc.o) (_Curl_cft_ssl_proxy)
/opt/netsurf/m68k-unknown-amigaos/env/lib/libcurl.a(libcurl_la-url.o)
                              /opt/netsurf/m68k-unknown-amigaos/env/lib/libcurl.a(libcurl_la-easy.o) (_Curl_freeset)
/opt/netsurf/m68k-unknown-amigaos/env/lib/libcurl.a(libcurl_la-getinfo.o)
                              /opt/netsurf/m68k-unknown-amigaos/env/lib/libcurl.a(libcurl_la-easy.o) (_Curl_initinfo)
/opt/netsurf/m68k-unknown-amigaos/env/lib/libcurl.a(libcurl_la-mime.o)
                              /opt/netsurf/m68k-unknown-amigaos/env/lib/libcurl.a(libcurl_la-formdata.o) (_curl_mime_data_cb)
/opt/netsurf/m68k-unknown-amigaos/env/lib/libcurl.a(libcurl_la-strdup.o)
                              /opt/netsurf/m68k-unknown-amigaos/env/lib/libcurl.a(libcurl_la-easy.o) (_Curl_memdup)
/opt/netsurf/m68k-unknown-amigaos/env/lib/libcurl.a(libcurl_la-dynbuf.o)
                              /opt/netsurf/m68k-unknown-amigaos/env/lib/libcurl.a(libcurl_la-easy.o) (_Curl_dyn_init)
/opt/netsurf/m68k-unknown-amigaos/env/lib/libcurl.a(libcurl_la-hsts.o)
                              /opt/netsurf/m68k-unknown-amigaos/env/lib/libcurl.a(libcurl_la-easy.o) (_Curl_hsts_init)
/opt/netsurf/m68k-unknown-amigaos/env/lib/libcurl.a(libcurl_la-llist.o)
                              /opt/netsurf/m68k-unknown-amigaos/env/lib/libcurl.a(libcurl_la-easy.o) (_Curl_llist_init)
/opt/netsurf/m68k-unknown-amigaos/env/lib/libcurl.a(libcurl_la-altsvc.o)
                              /opt/netsurf/m68k-unknown-amigaos/env/lib/libcurl.a(libcurl_la-url.o) (_Curl_alpnid2str)
/opt/netsurf/m68k-unknown-amigaos/env/lib/libcurl.a(libcurl_la-cookie.o)
                              /opt/netsurf/m68k-unknown-amigaos/env/lib/libcurl.a(libcurl_la-setopt.o) (_Curl_cookie_add)
/opt/netsurf/m68k-unknown-amigaos/env/lib/libcurl.a(libcurl_la-request.o)
                              /opt/netsurf/m68k-unknown-amigaos/env/lib/libcurl.a(libcurl_la-url.o) (_Curl_req_init)
/opt/netsurf/m68k-unknown-amigaos/env/lib/libcurl.a(libcurl_la-http_digest.o)
                              /opt/netsurf/m68k-unknown-amigaos/env/lib/libcurl.a(libcurl_la-easy.o) (_Curl_http_auth_cleanup_digest)
/opt/netsurf/m68k-unknown-amigaos/env/lib/libcurl.a(libcurl_la-sendf.o)
                              /opt/netsurf/m68k-unknown-amigaos/env/lib/libcurl.a(libcurl_la-mime.o) (_Curl_creader_def_close)
/opt/netsurf/m68k-unknown-amigaos/env/lib/libcurl.a(libcurl_la-cfilters.o)
                              /opt/netsurf/m68k-unknown-amigaos/env/lib/libcurl.a(libcurl_la-vtls.o) (_Curl_cf_def_get_host)
/opt/netsurf/m68k-unknown-amigaos/env/lib/libcurl.a(libcurl_la-connect.o)
                              /opt/netsurf/m68k-unknown-amigaos/env/lib/libcurl.a(libcurl_la-curl_trc.o) (_Curl_cft_setup)
/opt/netsurf/m68k-unknown-amigaos/env/lib/libcurl.a(libcurl_la-conncache.o)
                              /opt/netsurf/m68k-unknown-amigaos/env/lib/libcurl.a(libcurl_la-multi.o) (_Curl_cpool_init)
/opt/netsurf/m68k-unknown-amigaos/env/lib/libcurl.a(libcurl_la-progress.o)
                              /opt/netsurf/m68k-unknown-amigaos/env/lib/libcurl.a(libcurl_la-multi.o) (_Curl_pgrsResetTransferSizes)
/opt/netsurf/m68k-unknown-amigaos/env/lib/libcurl.a(libcurl_la-transfer.o)
                              /opt/netsurf/m68k-unknown-amigaos/env/lib/libcurl.a(libcurl_la-request.o) (_Curl_xfer_send_shutdown)
/opt/netsurf/m68k-unknown-amigaos/env/lib/libcurl.a(libcurl_la-hash.o)
                              /opt/netsurf/m68k-unknown-amigaos/env/lib/libcurl.a(libcurl_la-multi.o) (_Curl_hash_init)
/opt/netsurf/m68k-unknown-amigaos/env/lib/libcurl.a(libcurl_la-hostip.o)
                              /opt/netsurf/m68k-unknown-amigaos/env/lib/libcurl.a(libcurl_la-multi.o) (_Curl_hostcache_prune)
/opt/netsurf/m68k-unknown-amigaos/env/lib/libcurl.a(libcurl_la-socketpair.o)
                              /opt/netsurf/m68k-unknown-amigaos/env/lib/libcurl.a(libcurl_la-multi.o) (_Curl_socketpair)
/opt/netsurf/m68k-unknown-amigaos/env/lib/libcurl.a(libcurl_la-select.o)
                              /opt/netsurf/m68k-unknown-amigaos/env/lib/libcurl.a(libcurl_la-multi.o) (_Curl_wait_ms)
/opt/netsurf/m68k-unknown-amigaos/env/lib/libcurl.a(libcurl_la-urlapi.o)
                              /opt/netsurf/m68k-unknown-amigaos/env/lib/libcurl.a(libcurl_la-multi.o) (_Curl_is_absolute_url)
/opt/netsurf/m68k-unknown-amigaos/env/lib/libcurl.a(libcurl_la-timeval.o)
                              /opt/netsurf/m68k-unknown-amigaos/env/lib/libcurl.a(libcurl_la-multi.o) (_Curl_now)
/opt/netsurf/m68k-unknown-amigaos/env/lib/libcurl.a(libcurl_la-splay.o)
                              /opt/netsurf/m68k-unknown-amigaos/env/lib/libcurl.a(libcurl_la-multi.o) (_Curl_splay)
/opt/netsurf/m68k-unknown-amigaos/env/lib/libcurl.a(libcurl_la-netrc.o)
                              /opt/netsurf/m68k-unknown-amigaos/env/lib/libcurl.a(libcurl_la-url.o) (_Curl_parsenetrc)
/opt/netsurf/m68k-unknown-amigaos/env/lib/libcurl.a(libcurl_la-http.o)
                              /opt/netsurf/m68k-unknown-amigaos/env/lib/libcurl.a(libcurl_la-url.o) (_Curl_handler_https)
/opt/netsurf/m68k-unknown-amigaos/env/lib/libcurl.a(libcurl_la-speedcheck.o)
                              /opt/netsurf/m68k-unknown-amigaos/env/lib/libcurl.a(libcurl_la-url.o) (_Curl_speedinit)
/opt/netsurf/m68k-unknown-amigaos/env/lib/libcurl.a(libcurl_la-ftplistparser.o)
                              /opt/netsurf/m68k-unknown-amigaos/env/lib/libcurl.a(libcurl_la-transfer.o) (_Curl_wildcard_init)
/opt/netsurf/m68k-unknown-amigaos/env/lib/libcurl.a(libcurl_la-cf-socket.o)
                              /opt/netsurf/m68k-unknown-amigaos/env/lib/libcurl.a(libcurl_la-curl_trc.o) (_Curl_cft_tcp_accept)
/opt/netsurf/m68k-unknown-amigaos/env/lib/libcurl.a(libcurl_la-share.o)
                              /opt/netsurf/m68k-unknown-amigaos/env/lib/libcurl.a(libcurl_la-setopt.o) (_Curl_share_lock)
/opt/netsurf/m68k-unknown-amigaos/env/lib/libcurl.a(libcurl_la-content_encoding.o)
                              /opt/netsurf/m68k-unknown-amigaos/env/lib/libcurl.a(libcurl_la-setopt.o) (_Curl_all_content_encodings)
/opt/netsurf/m68k-unknown-amigaos/env/lib/libcurl.a(libcurl_la-mprintf.o)
                              /opt/netsurf/m68k-unknown-amigaos/env/lib/libcurl.a(libcurl_la-version.o) (_curl_msnprintf)
/opt/netsurf/m68k-unknown-amigaos/env/lib/libcurl.a(libcurl_la-doh.o)
                              /opt/netsurf/m68k-unknown-amigaos/env/lib/libcurl.a(libcurl_la-curl_trc.o) (_Curl_doh_trc)
/opt/netsurf/m68k-unknown-amigaos/env/lib/libcurl.a(libcurl_la-cf-h1-proxy.o)
                              /opt/netsurf/m68k-unknown-amigaos/env/lib/libcurl.a(libcurl_la-curl_trc.o) (_Curl_cft_h1_proxy)
/opt/netsurf/m68k-unknown-amigaos/env/lib/libcurl.a(libcurl_la-http_proxy.o)
                              /opt/netsurf/m68k-unknown-amigaos/env/lib/libcurl.a(libcurl_la-curl_trc.o) (_Curl_cft_http_proxy)
/opt/netsurf/m68k-unknown-amigaos/env/lib/libcurl.a(libcurl_la-cf-haproxy.o)
                              /opt/netsurf/m68k-unknown-amigaos/env/lib/libcurl.a(libcurl_la-curl_trc.o) (_Curl_cft_haproxy)
/opt/netsurf/m68k-unknown-amigaos/env/lib/libcurl.a(libcurl_la-socks.o)
                              /opt/netsurf/m68k-unknown-amigaos/env/lib/libcurl.a(libcurl_la-curl_trc.o) (_Curl_cft_socks_proxy)
/opt/netsurf/m68k-unknown-amigaos/env/lib/libcurl.a(libcurl_la-cf-https-connect.o)
                              /opt/netsurf/m68k-unknown-amigaos/env/lib/libcurl.a(libcurl_la-curl_trc.o) (_Curl_cft_http_connect)
/opt/netsurf/m68k-unknown-amigaos/env/lib/libcurl.a(libcurl_la-openssl.o)
                              /opt/netsurf/m68k-unknown-amigaos/env/lib/libcurl.a(libcurl_la-vtls.o) (_Curl_ssl_openssl)
/opt/netsurf/m68k-unknown-amigaos/env/lib/libcurl.a(libcurl_la-bufq.o)
                              /opt/netsurf/m68k-unknown-amigaos/env/lib/libcurl.a(libcurl_la-vtls.o) (_Curl_bufq_init2)
/opt/netsurf/m68k-unknown-amigaos/env/lib/libcurl.a(libcurl_la-base64.o)
                              /opt/netsurf/m68k-unknown-amigaos/env/lib/libcurl.a(libcurl_la-vtls.o) (_Curl_base64_decode)
/opt/netsurf/m68k-unknown-amigaos/env/lib/libcurl.a(libcurl_la-getenv.o)
                              /opt/netsurf/m68k-unknown-amigaos/env/lib/libcurl.a(libcurl_la-vtls.o) (_curl_getenv)
/opt/netsurf/m68k-unknown-amigaos/env/lib/libcurl.a(libcurl_la-inet_pton.o)
                              /opt/netsurf/m68k-unknown-amigaos/env/lib/libcurl.a(libcurl_la-vtls.o) (_Curl_inet_pton)
/opt/netsurf/m68k-unknown-amigaos/env/lib/libcurl.a(libcurl_la-headers.o)
                              /opt/netsurf/m68k-unknown-amigaos/env/lib/libcurl.a(libcurl_la-url.o) (_Curl_headers_init)
/opt/netsurf/m68k-unknown-amigaos/env/lib/libcurl.a(libcurl_la-http_ntlm.o)
                              /opt/netsurf/m68k-unknown-amigaos/env/lib/libcurl.a(libcurl_la-http.o) (_Curl_output_ntlm)
/opt/netsurf/m68k-unknown-amigaos/env/lib/libcurl.a(libcurl_la-file.o)
                              /opt/netsurf/m68k-unknown-amigaos/env/lib/libcurl.a(libcurl_la-url.o) (_Curl_handler_file)
/opt/netsurf/m68k-unknown-amigaos/env/lib/libcurl.a(libcurl_la-gopher.o)
                              /opt/netsurf/m68k-unknown-amigaos/env/lib/libcurl.a(libcurl_la-url.o) (_Curl_handler_gophers)
/opt/netsurf/m68k-unknown-amigaos/env/lib/libcurl.a(libcurl_la-smtp.o)
                              /opt/netsurf/m68k-unknown-amigaos/env/lib/libcurl.a(libcurl_la-url.o) (_Curl_handler_smtps)
/opt/netsurf/m68k-unknown-amigaos/env/lib/libcurl.a(libcurl_la-smb.o)
                              /opt/netsurf/m68k-unknown-amigaos/env/lib/libcurl.a(libcurl_la-url.o) (_Curl_handler_smbs)
/opt/netsurf/m68k-unknown-amigaos/env/lib/libcurl.a(libcurl_la-telnet.o)
                              /opt/netsurf/m68k-unknown-amigaos/env/lib/libcurl.a(libcurl_la-url.o) (_Curl_handler_telnet)
/opt/netsurf/m68k-unknown-amigaos/env/lib/libcurl.a(libcurl_la-tftp.o)
                              /opt/netsurf/m68k-unknown-amigaos/env/lib/libcurl.a(libcurl_la-url.o) (_Curl_handler_tftp)
/opt/netsurf/m68k-unknown-amigaos/env/lib/libcurl.a(libcurl_la-ftp.o)
                              /opt/netsurf/m68k-unknown-amigaos/env/lib/libcurl.a(libcurl_la-url.o) (_Curl_handler_ftps)
/opt/netsurf/m68k-unknown-amigaos/env/lib/libcurl.a(libcurl_la-imap.o)
                              /opt/netsurf/m68k-unknown-amigaos/env/lib/libcurl.a(libcurl_la-url.o) (_Curl_handler_imaps)
/opt/netsurf/m68k-unknown-amigaos/env/lib/libcurl.a(libcurl_la-ws.o)
                              /opt/netsurf/m68k-unknown-amigaos/env/lib/libcurl.a(libcurl_la-url.o) (_Curl_handler_wss)
/opt/netsurf/m68k-unknown-amigaos/env/lib/libcurl.a(libcurl_la-rtsp.o)
                              /opt/netsurf/m68k-unknown-amigaos/env/lib/libcurl.a(libcurl_la-url.o) (_Curl_handler_rtsp)
/opt/netsurf/m68k-unknown-amigaos/env/lib/libcurl.a(libcurl_la-pop3.o)
                              /opt/netsurf/m68k-unknown-amigaos/env/lib/libcurl.a(libcurl_la-url.o) (_Curl_handler_pop3s)
/opt/netsurf/m68k-unknown-amigaos/env/lib/libcurl.a(libcurl_la-dict.o)
                              /opt/netsurf/m68k-unknown-amigaos/env/lib/libcurl.a(libcurl_la-url.o) (_Curl_handler_dict)
/opt/netsurf/m68k-unknown-amigaos/env/lib/libcurl.a(libcurl_la-mqtt.o)
                              /opt/netsurf/m68k-unknown-amigaos/env/lib/libcurl.a(libcurl_la-url.o) (_Curl_handler_mqtt)
/opt/netsurf/m68k-unknown-amigaos/env/lib/libcurl.a(libcurl_la-noproxy.o)
                              /opt/netsurf/m68k-unknown-amigaos/env/lib/libcurl.a(libcurl_la-url.o) (_Curl_check_noproxy)
/opt/netsurf/m68k-unknown-amigaos/env/lib/libcurl.a(libcurl_la-idn.o)
                              /opt/netsurf/m68k-unknown-amigaos/env/lib/libcurl.a(libcurl_la-urlapi.o) (_Curl_is_ASCII_name)
/opt/netsurf/m68k-unknown-amigaos/env/lib/libcurl.a(libcurl_la-rand.o)
                              /opt/netsurf/m68k-unknown-amigaos/env/lib/libcurl.a(libcurl_la-hostip.o) (_Curl_rand_bytes)
/opt/netsurf/m68k-unknown-amigaos/env/lib/libcurl.a(libcurl_la-strtoofft.o)
                              /opt/netsurf/m68k-unknown-amigaos/env/lib/libcurl.a(libcurl_la-hsts.o) (_curlx_strtoofft)
/opt/netsurf/m68k-unknown-amigaos/env/lib/libcurl.a(libcurl_la-fopen.o)
                              /opt/netsurf/m68k-unknown-amigaos/env/lib/libcurl.a(libcurl_la-hsts.o) (_Curl_fopen)
/opt/netsurf/m68k-unknown-amigaos/env/lib/libcurl.a(libcurl_la-rename.o)
                              /opt/netsurf/m68k-unknown-amigaos/env/lib/libcurl.a(libcurl_la-hsts.o) (_Curl_rename)
/opt/netsurf/m68k-unknown-amigaos/env/lib/libcurl.a(libcurl_la-curl_get_line.o)
                              /opt/netsurf/m68k-unknown-amigaos/env/lib/libcurl.a(libcurl_la-hsts.o) (_Curl_get_line)
/opt/netsurf/m68k-unknown-amigaos/env/lib/libcurl.a(libcurl_la-curl_memrchr.o)
                              /opt/netsurf/m68k-unknown-amigaos/env/lib/libcurl.a(libcurl_la-cookie.o) (_Curl_memrchr)
/opt/netsurf/m68k-unknown-amigaos/env/lib/libcurl.a(libcurl_la-digest.o)
                              /opt/netsurf/m68k-unknown-amigaos/env/lib/libcurl.a(libcurl_la-http.o) (_Curl_auth_is_digest_supported)
/opt/netsurf/m68k-unknown-amigaos/env/lib/libcurl.a(libcurl_la-cw-out.o)
                              /opt/netsurf/m68k-unknown-amigaos/env/lib/libcurl.a(libcurl_la-sendf.o) (_Curl_cwt_out)
/opt/netsurf/m68k-unknown-amigaos/env/lib/libcurl.a(libcurl_la-inet_ntop.o)
                              /opt/netsurf/m68k-unknown-amigaos/env/lib/libcurl.a(libcurl_la-connect.o) (_Curl_inet_ntop)
/opt/netsurf/m68k-unknown-amigaos/env/lib/libcurl.a(libcurl_la-curl_addrinfo.o)
                              /opt/netsurf/m68k-unknown-amigaos/env/lib/libcurl.a(libcurl_la-hostip.o) (_Curl_freeaddrinfo)
/opt/netsurf/m68k-unknown-amigaos/env/lib/libcurl.a(libcurl_la-hostip4.o)
                              /opt/netsurf/m68k-unknown-amigaos/env/lib/libcurl.a(libcurl_la-hostip.o) (_Curl_ipvalid)
/opt/netsurf/m68k-unknown-amigaos/env/lib/libcurl.a(libcurl_la-nonblock.o)
                              /opt/netsurf/m68k-unknown-amigaos/env/lib/libcurl.a(libcurl_la-socketpair.o) (_curlx_nonblock)
/opt/netsurf/m68k-unknown-amigaos/env/lib/libcurl.a(libcurl_la-timediff.o)
                              /opt/netsurf/m68k-unknown-amigaos/env/lib/libcurl.a(libcurl_la-select.o) (_curlx_mstotv)
/opt/netsurf/m68k-unknown-amigaos/env/lib/libcurl.a(libcurl_la-vquic.o)
                              /opt/netsurf/m68k-unknown-amigaos/env/lib/libcurl.a(libcurl_la-http.o) (_Curl_conn_may_http3)
/opt/netsurf/m68k-unknown-amigaos/env/lib/libcurl.a(libcurl_la-http_aws_sigv4.o)
                              /opt/netsurf/m68k-unknown-amigaos/env/lib/libcurl.a(libcurl_la-http.o) (_Curl_output_aws_sigv4)
/opt/netsurf/m68k-unknown-amigaos/env/lib/libcurl.a(libcurl_la-vauth.o)
                              /opt/netsurf/m68k-unknown-amigaos/env/lib/libcurl.a(libcurl_la-digest.o) (_Curl_auth_build_spn)
/opt/netsurf/m68k-unknown-amigaos/env/lib/libcurl.a(libcurl_la-ntlm.o)
                              /opt/netsurf/m68k-unknown-amigaos/env/lib/libcurl.a(libcurl_la-http.o) (_Curl_auth_is_ntlm_supported)
/opt/netsurf/m68k-unknown-amigaos/env/lib/libcurl.a(libcurl_la-dynhds.o)
                              /opt/netsurf/m68k-unknown-amigaos/env/lib/libcurl.a(libcurl_la-http.o) (_Curl_dynhds_init)
/opt/netsurf/m68k-unknown-amigaos/env/lib/libcurl.a(libcurl_la-http_chunks.o)
                              /opt/netsurf/m68k-unknown-amigaos/env/lib/libcurl.a(libcurl_la-content_encoding.o) (_Curl_httpchunk_unencoder)
/opt/netsurf/m68k-unknown-amigaos/env/lib/libcurl.a(libcurl_la-fileinfo.o)
                              /opt/netsurf/m68k-unknown-amigaos/env/lib/libcurl.a(libcurl_la-ftplistparser.o) (_Curl_fileinfo_alloc)
/opt/netsurf/m68k-unknown-amigaos/env/lib/libcurl.a(libcurl_la-curl_fnmatch.o)
                              /opt/netsurf/m68k-unknown-amigaos/env/lib/libcurl.a(libcurl_la-ftplistparser.o) (_Curl_fnmatch)
/opt/netsurf/m68k-unknown-amigaos/env/lib/libcurl.a(libcurl_la-if2ip.o)
                              /opt/netsurf/m68k-unknown-amigaos/env/lib/libcurl.a(libcurl_la-cf-socket.o) (_Curl_if2ip)
/opt/netsurf/m68k-unknown-amigaos/env/lib/libcurl.a(libcurl_la-http1.o)
                              /opt/netsurf/m68k-unknown-amigaos/env/lib/libcurl.a(libcurl_la-cf-h1-proxy.o) (_Curl_h1_req_write_head)
/opt/netsurf/m68k-unknown-amigaos/env/lib/libcurl.a(libcurl_la-keylog.o)
                              /opt/netsurf/m68k-unknown-amigaos/env/lib/libcurl.a(libcurl_la-openssl.o) (_Curl_tls_keylog_open)
/opt/netsurf/m68k-unknown-amigaos/env/lib/libcurl.a(libcurl_la-hostcheck.o)
                              /opt/netsurf/m68k-unknown-amigaos/env/lib/libcurl.a(libcurl_la-openssl.o) (_Curl_cert_hostcheck)
/opt/netsurf/m68k-unknown-amigaos/env/lib/libcurl.a(libcurl_la-bufref.o)
                              /opt/netsurf/m68k-unknown-amigaos/env/lib/libcurl.a(libcurl_la-http_ntlm.o) (_Curl_bufref_init)
/opt/netsurf/m68k-unknown-amigaos/env/lib/libcurl.a(libcurl_la-curl_range.o)
                              /opt/netsurf/m68k-unknown-amigaos/env/lib/libcurl.a(libcurl_la-file.o) (_Curl_range)
/opt/netsurf/m68k-unknown-amigaos/env/lib/libcurl.a(libcurl_la-pingpong.o)
                              /opt/netsurf/m68k-unknown-amigaos/env/lib/libcurl.a(libcurl_la-ftp.o) (_Curl_pp_state_timeout)
/opt/netsurf/m68k-unknown-amigaos/env/lib/libcurl.a(libcurl_la-curl_sasl.o)
                              /opt/netsurf/m68k-unknown-amigaos/env/lib/libcurl.a(libcurl_la-smtp.o) (_Curl_sasl_cleanup)
/opt/netsurf/m68k-unknown-amigaos/env/lib/libcurl.a(libcurl_la-curl_gethostname.o)
                              /opt/netsurf/m68k-unknown-amigaos/env/lib/libcurl.a(libcurl_la-smtp.o) (_Curl_gethostname)
/opt/netsurf/m68k-unknown-amigaos/env/lib/libcurl.a(libcurl_la-curl_endian.o)
                              /opt/netsurf/m68k-unknown-amigaos/env/lib/libcurl.a(libcurl_la-smb.o) (_Curl_read16_le)
/opt/netsurf/m68k-unknown-amigaos/env/lib/libcurl.a(libcurl_la-curl_ntlm_core.o)
                              /opt/netsurf/m68k-unknown-amigaos/env/lib/libcurl.a(libcurl_la-smb.o) (_Curl_ntlm_core_lm_resp)
/opt/netsurf/m68k-unknown-amigaos/env/lib/libcurl.a(libcurl_la-md5.o)
                              /opt/netsurf/m68k-unknown-amigaos/env/lib/libcurl.a(libcurl_la-pop3.o) (_Curl_DIGEST_MD5)
/opt/netsurf/m68k-unknown-amigaos/env/lib/libcurl.a(libcurl_la-curl_sha512_256.o)
                              /opt/netsurf/m68k-unknown-amigaos/env/lib/libcurl.a(libcurl_la-digest.o) (_Curl_sha512_256it)
/opt/netsurf/m68k-unknown-amigaos/env/lib/libcurl.a(libcurl_la-sha256.o)
                              /opt/netsurf/m68k-unknown-amigaos/env/lib/libcurl.a(libcurl_la-http_aws_sigv4.o) (_Curl_HMAC_SHA256)
/opt/netsurf/m68k-unknown-amigaos/env/lib/libcurl.a(libcurl_la-hmac.o)
                              /opt/netsurf/m68k-unknown-amigaos/env/lib/libcurl.a(libcurl_la-http_aws_sigv4.o) (_Curl_hmacit)
/opt/netsurf/m68k-unknown-amigaos/env/lib/libcurl.a(libcurl_la-cleartext.o)
                              /opt/netsurf/m68k-unknown-amigaos/env/lib/libcurl.a(libcurl_la-curl_sasl.o) (_Curl_auth_create_plain_message)
/opt/netsurf/m68k-unknown-amigaos/env/lib/libcurl.a(libcurl_la-oauth2.o)
                              /opt/netsurf/m68k-unknown-amigaos/env/lib/libcurl.a(libcurl_la-curl_sasl.o) (_Curl_auth_create_oauth_bearer_message)
/opt/netsurf/m68k-unknown-amigaos/env/lib/libcurl.a(libcurl_la-cram.o)
                              /opt/netsurf/m68k-unknown-amigaos/env/lib/libcurl.a(libcurl_la-curl_sasl.o) (_Curl_auth_create_cram_md5_message)
/opt/netsurf/m68k-unknown-amigaos/env/lib/libcurl.a(libcurl_la-md4.o)
                              /opt/netsurf/m68k-unknown-amigaos/env/lib/libcurl.a(libcurl_la-curl_ntlm_core.o) (_Curl_md4it)
/opt/netsurf/m68k-unknown-amigaos/cross/lib/gcc/m68k-unknown-amigaos/3.4.6/../../../../m68k-unknown-amigaos/lib/libamisslauto.a(autoinit_assl.o)
                              build-newer-morphos/mui_gui.o (_SocketBase)
/opt/netsurf/m68k-unknown-amigaos/cross/lib/gcc/m68k-unknown-amigaos/3.4.6/../../../../m68k-unknown-amigaos/lib/libamisslstubs.a()
                              /opt/netsurf/m68k-unknown-amigaos/env/lib/libcurl.a(libcurl_la-openssl.o) (_X509_INFO_free)
/opt/netsurf/m68k-unknown-amigaos/cross/lib/gcc/m68k-unknown-amigaos/3.4.6/../../../../m68k-unknown-amigaos/lib/libamisslstubs.a(X509_free.o)
                              /opt/netsurf/m68k-unknown-amigaos/env/lib/libcurl.a(libcurl_la-openssl.o) (_X509_free)
/opt/netsurf/m68k-unknown-amigaos/env/lib/libiconv.a(iconv.o)
                              build-newer-morphos/render_textplain.o (_libiconv_open)
/opt/netsurf/m68k-unknown-amigaos/env/lib/libiconv.a(localcharset.o)
                              /opt/netsurf/m68k-unknown-amigaos/env/lib/libiconv.a(iconv.o) (_locale_charset)
/mnt/e/usr/local/amiga/m68k-amigaos/clib/extra/ns-lib/libamiga2.a(sprintf.o)
                              build-newer-morphos/content_urldb.o (_sprintf)
/mnt/e/usr/local/amiga/m68k-amigaos/clib/extra/ns-lib/libamiga2.a(setattrs.o)
                              build-newer-morphos/mui_addressbarclass.o (_SetAttrs)
/mnt/e/usr/local/amiga/m68k-amigaos/clib/extra/ns-lib/libamiga2.a(DoMethod.o)
                              build-newer-morphos/mui_addressbarclass.o (_DoMethod)
/mnt/e/usr/local/amiga/m68k-amigaos/clib/extra/ns-lib/libamiga2.a(DoSuperMethod.o)
                              build-newer-morphos/mui_extrasrc.o (_DoSuperMethod)
/mnt/e/usr/local/amiga/m68k-amigaos/clib/extra/ns-lib/libamiga2.a(HookEntry.o)
                              build-newer-morphos/mui_applicationclass.o (_HookEntry)
/mnt/e/usr/local/amiga/m68k-amigaos/clib/extra/ns-lib/libamiga2.a(NewList.o)
                              build-newer-morphos/mui_applicationclass.o (_NewList)
/mnt/e/usr/local/amiga/m68k-amigaos/clib/extra/ns-lib/libamiga2.a(fwritef.o)
                              build-newer-morphos/mui_hotlistwindowclass.o (_FWritef)
/mnt/e/usr/local/amiga/m68k-amigaos/clib/extra/ns-lib/libamiga2.a(obtainbestpen.o)
                              build-newer-morphos/mui_plotters.o (_ObtainBestPen)
/mnt/e/usr/local/amiga/m68k-amigaos/clib/extra/ns-lib/libamiga2.a(ioerr.o)
                              build-newer-morphos/mui_plotters.o (_IoErr)
/mnt/e/usr/local/amiga/m68k-amigaos/clib/extra/ns-lib/libamiga2.a(createnewppoctags.o)
                              build-newer-morphos/mui_print.o (_CreateNewProcTags)
/mnt/e/usr/local/amiga/m68k-amigaos/clib/extra/ns-lib/libamiga2.a(allocmem.o)
                              build-newer-morphos/mui_save_complete.o (_AllocMem)
/mnt/e/usr/local/amiga/m68k-amigaos/clib/extra/ns-lib/libamiga2.a(freemem.o)
                              build-newer-morphos/mui_save_complete.o (_FreeMem)
/mnt/e/usr/local/amiga/m68k-amigaos/clib/extra/ns-lib/libamiga2.a(maprawkey.o)
                              build-newer-morphos/mui_titleclass.o (_MapRawKey)
/mnt/e/usr/local/amiga/m68k-amigaos/clib/extra/ns-lib/libamiga2.a(write.o)
                              /mnt/e/usr/local/amiga/m68k-amigaos/clib/extra/ns-lib/libasyncio.a(CloseAsync.o) (_Write)
/mnt/e/usr/local/amiga/m68k-amigaos/clib/extra/ns-lib/libamiga2.a(close.o)
                              /mnt/e/usr/local/amiga/m68k-amigaos/clib/extra/ns-lib/libasyncio.a(CloseAsync.o) (_Close)
/mnt/e/usr/local/amiga/m68k-amigaos/clib/extra/ns-lib/libamiga2.a(freevec.o)
                              /mnt/e/usr/local/amiga/m68k-amigaos/clib/extra/ns-lib/libasyncio.a(CloseAsync.o) (_FreeVec)
/mnt/e/usr/local/amiga/m68k-amigaos/clib/extra/ns-lib/libamiga2.a(setioerr.o)
                              /mnt/e/usr/local/amiga/m68k-amigaos/clib/extra/ns-lib/libasyncio.a(CloseAsync.o) (_SetIoErr)
/mnt/e/usr/local/amiga/m68k-amigaos/clib/extra/ns-lib/libamiga2.a(copymem.o)
                              /mnt/e/usr/local/amiga/m68k-amigaos/clib/extra/ns-lib/libasyncio.a(ReadAsync.o) (_CopyMem)
/mnt/e/usr/local/amiga/m68k-amigaos/clib/extra/ns-lib/libamiga2.a(open.o)
                              /mnt/e/usr/local/amiga/m68k-amigaos/clib/extra/ns-lib/libasyncio.a(OpenAsync.o) (_Open)
/mnt/e/usr/local/amiga/m68k-amigaos/clib/extra/ns-lib/libamiga2.a(waitport.o)
                              /mnt/e/usr/local/amiga/m68k-amigaos/clib/extra/ns-lib/libasyncio.a(WaitPacket.o) (_WaitPort)
/mnt/e/usr/local/amiga/m68k-amigaos/clib/extra/ns-lib/libamiga2.a(remove.o)
                              /mnt/e/usr/local/amiga/m68k-amigaos/clib/extra/ns-lib/libasyncio.a(WaitPacket.o) (_Remove)
/mnt/e/usr/local/amiga/m68k-amigaos/clib/extra/ns-lib/libamiga2.a(errorreport.o)
                              /mnt/e/usr/local/amiga/m68k-amigaos/clib/extra/ns-lib/libasyncio.a(WaitPacket.o) (_ErrorReport)
/mnt/e/usr/local/amiga/m68k-amigaos/clib/extra/ns-lib/libamiga2.a(putmsg.o)
                              /mnt/e/usr/local/amiga/m68k-amigaos/clib/extra/ns-lib/libasyncio.a(SendPacket.o) (_PutMsg)
/mnt/e/usr/local/amiga/m68k-amigaos/clib/extra/ns-lib/libamiga2.a(duplockfromfh.o)
                              /mnt/e/usr/local/amiga/m68k-amigaos/clib/extra/ns-lib/libasyncio.a(OpenAsyncFH.o) (_DupLockFromFH)
/mnt/e/usr/local/amiga/m68k-amigaos/clib/extra/ns-lib/libamiga2.a(seek.o)
                              /mnt/e/usr/local/amiga/m68k-amigaos/clib/extra/ns-lib/libasyncio.a(OpenAsyncFH.o) (_Seek)
/mnt/e/usr/local/amiga/m68k-amigaos/clib/extra/ns-lib/libamiga2.a(parentoffh.o)
                              /mnt/e/usr/local/amiga/m68k-amigaos/clib/extra/ns-lib/libasyncio.a(OpenAsyncFH.o) (_ParentOfFH)
/mnt/e/usr/local/amiga/m68k-amigaos/clib/extra/ns-lib/libamiga2.a(info.o)
                              /mnt/e/usr/local/amiga/m68k-amigaos/clib/extra/ns-lib/libasyncio.a(OpenAsyncFH.o) (_Info)
/mnt/e/usr/local/amiga/m68k-amigaos/clib/extra/ns-lib/libamiga2.a(unlock.o)
                              /mnt/e/usr/local/amiga/m68k-amigaos/clib/extra/ns-lib/libasyncio.a(OpenAsyncFH.o) (_UnLock)
/mnt/e/usr/local/amiga/m68k-amigaos/clib/extra/ns-lib/libamiga2.a(allocvec.o)
                              /mnt/e/usr/local/amiga/m68k-amigaos/clib/extra/ns-lib/libasyncio.a(OpenAsyncFH.o) (_AllocVec)
/mnt/e/usr/local/amiga/m68k-amigaos/clib/extra/ns-lib/libamiga2.a(findtask.o)
                              /mnt/e/usr/local/amiga/m68k-amigaos/clib/extra/ns-lib/libasyncio.a(OpenAsyncFH.o) (_FindTask)
/opt/netsurf/m68k-unknown-amigaos/cross/lib/gcc/m68k-unknown-amigaos/3.4.6/../../../../m68k-unknown-amigaos/lib/libdebug.a(debug_kprintf1.o)
                              build-newer-morphos/content_content.o (_kprintf)
/opt/netsurf/m68k-unknown-amigaos/cross/lib/gcc/m68k-unknown-amigaos/3.4.6/../../../../m68k-unknown-amigaos/lib/libdebug.a(debug_kputfmt.o)
                              /opt/netsurf/m68k-unknown-amigaos/cross/lib/gcc/m68k-unknown-amigaos/3.4.6/../../../../m68k-unknown-amigaos/lib/libdebug.a(debug_kprintf1.o) (_KPutFmt)
/opt/netsurf/m68k-unknown-amigaos/cross/lib/gcc/m68k-unknown-amigaos/3.4.6/../../../../m68k-unknown-amigaos/lib/libdebug.a(debug_kdofmt.o)
                              /opt/netsurf/m68k-unknown-amigaos/cross/lib/gcc/m68k-unknown-amigaos/3.4.6/../../../../m68k-unknown-amigaos/lib/libdebug.a(debug_kputfmt.o) (_KDoFmt)
/opt/netsurf/m68k-unknown-amigaos/cross/lib/gcc/m68k-unknown-amigaos/3.4.6/../../../../m68k-unknown-amigaos/lib/libdebug.a(debug_kputc.o)
                              /opt/netsurf/m68k-unknown-amigaos/cross/lib/gcc/m68k-unknown-amigaos/3.4.6/../../../../m68k-unknown-amigaos/lib/libdebug.a(debug_kputfmt.o) (_kputc)
lib/libhubbub-0.0.2.a(src_hubbub.o)
                              build-newer-morphos/mui_gui.o (_hubbub_initialise)
lib/libhubbub-0.0.2.a(src_parser.o)
                              build-newer-morphos/render_hubbub_binding.o (_hubbub_parser_create)
lib/libhubbub-0.0.2.a(src_treebuilder_tokeniser_entities.o)
                              lib/libhubbub-0.0.2.a(src_hubbub.o) (_hubbub_entities_create)
lib/libhubbub-0.0.2.a(src_charset_detect.o)
                              lib/libhubbub-0.0.2.a(src_parser.o) (_hubbub_charset_fix_charset)
lib/libhubbub-0.0.2.a(src_treebuilder_tokeniser_tokeniser.o)
                              lib/libhubbub-0.0.2.a(src_parser.o) (_hubbub_tokeniser_create)
lib/libhubbub-0.0.2.a(src_treebuilder_treebuilder.o)
                              lib/libhubbub-0.0.2.a(src_parser.o) (_hubbub_treebuilder_create)
lib/libhubbub-0.0.2.a(src_treebuilder_utils_dict.o)
                              lib/libhubbub-0.0.2.a(src_treebuilder_tokeniser_entities.o) (_hubbub_dict_create)
lib/libhubbub-0.0.2.a(src_treebuilder_initial.o)
                              lib/libhubbub-0.0.2.a(src_treebuilder_treebuilder.o) (_handle_initial)
lib/libhubbub-0.0.2.a(src_treebuilder_generic_rcdata.o)
                              lib/libhubbub-0.0.2.a(src_treebuilder_treebuilder.o) (_handle_generic_rcdata)
lib/libhubbub-0.0.2.a(src_treebuilder_after_after_frameset.o)
                              lib/libhubbub-0.0.2.a(src_treebuilder_treebuilder.o) (_handle_after_after_frameset)
lib/libhubbub-0.0.2.a(src_treebuilder_after_after_body.o)
                              lib/libhubbub-0.0.2.a(src_treebuilder_treebuilder.o) (_handle_after_after_body)
lib/libhubbub-0.0.2.a(src_treebuilder_after_frameset.o)
                              lib/libhubbub-0.0.2.a(src_treebuilder_treebuilder.o) (_handle_after_frameset)
lib/libhubbub-0.0.2.a(src_treebuilder_in_frameset.o)
                              lib/libhubbub-0.0.2.a(src_treebuilder_treebuilder.o) (_handle_in_frameset)
lib/libhubbub-0.0.2.a(src_treebuilder_after_body.o)
                              lib/libhubbub-0.0.2.a(src_treebuilder_treebuilder.o) (_handle_after_body)
lib/libhubbub-0.0.2.a(src_treebuilder_in_foreign_content.o)
                              lib/libhubbub-0.0.2.a(src_treebuilder_treebuilder.o) (_handle_in_foreign_content)
lib/libhubbub-0.0.2.a(src_treebuilder_in_select_in_table.o)
                              lib/libhubbub-0.0.2.a(src_treebuilder_treebuilder.o) (_handle_in_select_in_table)
lib/libhubbub-0.0.2.a(src_treebuilder_in_select.o)
                              lib/libhubbub-0.0.2.a(src_treebuilder_treebuilder.o) (_handle_in_select)
lib/libhubbub-0.0.2.a(src_treebuilder_in_cell.o)
                              lib/libhubbub-0.0.2.a(src_treebuilder_treebuilder.o) (_handle_in_cell)
lib/libhubbub-0.0.2.a(src_treebuilder_in_row.o)
                              lib/libhubbub-0.0.2.a(src_treebuilder_treebuilder.o) (_handle_in_row)
lib/libhubbub-0.0.2.a(src_treebuilder_in_table_body.o)
                              lib/libhubbub-0.0.2.a(src_treebuilder_treebuilder.o) (_handle_in_table_body)
lib/libhubbub-0.0.2.a(src_treebuilder_in_column_group.o)
                              lib/libhubbub-0.0.2.a(src_treebuilder_treebuilder.o) (_handle_in_column_group)
lib/libhubbub-0.0.2.a(src_treebuilder_in_caption.o)
                              lib/libhubbub-0.0.2.a(src_treebuilder_treebuilder.o) (_handle_in_caption)
lib/libhubbub-0.0.2.a(src_treebuilder_in_table.o)
                              lib/libhubbub-0.0.2.a(src_treebuilder_treebuilder.o) (_handle_in_table)
lib/libhubbub-0.0.2.a(src_treebuilder_in_body.o)
                              lib/libhubbub-0.0.2.a(src_treebuilder_treebuilder.o) (_aa_insert_into_foster_parent)
lib/libhubbub-0.0.2.a(src_treebuilder_after_head.o)
                              lib/libhubbub-0.0.2.a(src_treebuilder_treebuilder.o) (_handle_after_head)
lib/libhubbub-0.0.2.a(src_treebuilder_in_head_noscript.o)
                              lib/libhubbub-0.0.2.a(src_treebuilder_treebuilder.o) (_handle_in_head_noscript)
lib/libhubbub-0.0.2.a(src_treebuilder_in_head.o)
                              lib/libhubbub-0.0.2.a(src_treebuilder_treebuilder.o) (_handle_in_head)
lib/libhubbub-0.0.2.a(src_treebuilder_before_head.o)
                              lib/libhubbub-0.0.2.a(src_treebuilder_treebuilder.o) (_handle_before_head)
lib/libhubbub-0.0.2.a(src_treebuilder_before_html.o)
                              lib/libhubbub-0.0.2.a(src_treebuilder_treebuilder.o) (_handle_before_html)
lib/libhubbub-0.0.2.a(src_treebuilder_utils_string.o)
                              lib/libhubbub-0.0.2.a(src_treebuilder_in_foreign_content.o) (_hubbub_string_match)
lib/libparserutils-0.0.1.a(src_charset_encodings_utf8.o)
                              build-newer-morphos/utils_utf8.o (_parserutils_charset_utf8_to_ucs4)
lib/libparserutils-0.0.1.a(src_parserutils.o)
                              lib/libhubbub-0.0.2.a(src_hubbub.o) (_parserutils_initialise)
lib/libparserutils-0.0.1.a(src_input_inputstream.o)
                              lib/libhubbub-0.0.2.a(src_parser.o) (_parserutils_inputstream_create)
lib/libparserutils-0.0.1.a(src_charset_aliases.o)
                              lib/libhubbub-0.0.2.a(src_parser.o) (_parserutils_charset_mibenum_to_name)
lib/libparserutils-0.0.1.a(src_utils_buffer.o)
                              lib/libhubbub-0.0.2.a(src_treebuilder_tokeniser_tokeniser.o) (_parserutils_buffer_create)
lib/libparserutils-0.0.1.a(src_charset_charset.o)
                              lib/libparserutils-0.0.1.a(src_parserutils.o) (_parserutils_charset_initialise)
lib/libparserutils-0.0.1.a(src_input_filter.o)
                              lib/libparserutils-0.0.1.a(src_input_inputstream.o) (_parserutils_filter_create)
lib/libparserutils-0.0.1.a(src_charset_codec.o)
                              lib/libparserutils-0.0.1.a(src_input_filter.o) (_parserutils_charset_codec_create)
lib/libparserutils-0.0.1.a(src_charset_codecs_codec_utf8.o)
                              lib/libparserutils-0.0.1.a(src_charset_codec.o) (_charset_utf8_codec_handler)
lib/libparserutils-0.0.1.a(src_charset_codecs_codec_utf16.o)
                              lib/libparserutils-0.0.1.a(src_charset_codec.o) (_charset_utf16_codec_handler)
lib/libparserutils-0.0.1.a(src_charset_codecs_codec_8859.o)
                              lib/libparserutils-0.0.1.a(src_charset_codec.o) (_charset_8859_codec_handler)
lib/libparserutils-0.0.1.a(src_charset_codecs_codec_ext8.o)
                              lib/libparserutils-0.0.1.a(src_charset_codec.o) (_charset_ext8_codec_handler)
lib/libparserutils-0.0.1.a(src_charset_codecs_codec_ascii.o)
                              lib/libparserutils-0.0.1.a(src_charset_codec.o) (_charset_ascii_codec_handler)
lib/libparserutils-0.0.1.a(src_charset_encodings_utf16.o)
                              lib/libparserutils-0.0.1.a(src_charset_codecs_codec_utf16.o) (_parserutils_charset_utf16_to_ucs4)
lib/libpng12.a(pngread.o)     build-newer-morphos/image_png.o (_png_create_read_struct)
lib/libpng12.a(png.o)         lib/libpng12.a(pngread.o) (_png_zfree)
lib/libpng12.a(pngerror.o)    lib/libpng12.a(pngread.o) (_png_error)
lib/libpng12.a(pngpread.o)    build-newer-morphos/image_png.o (_png_process_data)
lib/libpng12.a(pngget.o)      build-newer-morphos/image_png.o (_png_get_valid)
lib/libpng12.a(pngrtran.o)    lib/libpng12.a(pngread.o) (_png_set_background_fixed)
lib/libpng12.a(pngtrans.o)    lib/libpng12.a(pngread.o) (_png_set_bgr)
lib/libpng12.a(pngrio.o)      lib/libpng12.a(pngread.o) (_png_set_read_fn)
lib/libpng12.a(pngrutil.o)    lib/libpng12.a(pngpread.o) (_png_get_uint_31)
lib/libpng12.a(pngmem.o)      lib/libpng12.a(pngread.o) (_png_destroy_png_struct)
lib/libpng12.a(pngset.o)      lib/libpng12.a(pngrutil.o) (_png_set_bKGD)
lib/libpng12.a(pngwrite.o)    lib/libpng12.a(png.o) (_png_destroy_write_struct)
lib/libpng12.a(pngwutil.o)    lib/libpng12.a(pngwrite.o) (_png_write_sig)
lib/libpng12.a(pngwio.o)      lib/libpng12.a(pngwutil.o) (_png_write_data)
lib/libpng12.a(pngwtran.o)    lib/libpng12.a(pngwrite.o) (_png_do_write_transformations)
/opt/netsurf/m68k-unknown-amigaos/cross/lib/gcc/m68k-unknown-amigaos/3.4.6/../../../../m68k-unknown-amigaos/lib/libunix.a(stdlib_main.o)
                              /opt/netsurf/m68k-unknown-amigaos/cross/lib/gcc/m68k-unknown-amigaos/3.4.6/../../../../m68k-unknown-amigaos/lib/crt0.o (__main)
/opt/netsurf/m68k-unknown-amigaos/cross/lib/gcc/m68k-unknown-amigaos/3.4.6/../../../../m68k-unknown-amigaos/lib/libunix.a(stdlib_malloc.o)
                              build-newer-morphos/content_fetch.o (_malloc)
/opt/netsurf/m68k-unknown-amigaos/cross/lib/gcc/m68k-unknown-amigaos/3.4.6/../../../../m68k-unknown-amigaos/lib/libunix.a(stat_stat.o)
                              build-newer-morphos/content_fetchers_fetch_curl.o (_stat)
/opt/netsurf/m68k-unknown-amigaos/cross/lib/gcc/m68k-unknown-amigaos/3.4.6/../../../../m68k-unknown-amigaos/lib/libunix.a(stdio_fopen.o)
                              build-newer-morphos/content_urldb.o (_fopen)
/opt/netsurf/m68k-unknown-amigaos/cross/lib/gcc/m68k-unknown-amigaos/3.4.6/../../../../m68k-unknown-amigaos/lib/libunix.a(stdlib_realloc.o)
                              build-newer-morphos/content_urldb.o (_realloc)
/opt/netsurf/m68k-unknown-amigaos/cross/lib/gcc/m68k-unknown-amigaos/3.4.6/../../../../m68k-unknown-amigaos/lib/libunix.a(stdio_init_exit.o)
                              build-newer-morphos/content_urldb.o (___iob)
/opt/netsurf/m68k-unknown-amigaos/cross/lib/gcc/m68k-unknown-amigaos/3.4.6/../../../../m68k-unknown-amigaos/lib/libunix.a(stdlib_main_stub.o)
                              build-newer-morphos/desktop_netsurf.o (___main)
/opt/netsurf/m68k-unknown-amigaos/cross/lib/gcc/m68k-unknown-amigaos/3.4.6/../../../../m68k-unknown-amigaos/lib/libunix.a(dirent_opendir.o)
                              build-newer-morphos/render_directory.o (_opendir)
/opt/netsurf/m68k-unknown-amigaos/cross/lib/gcc/m68k-unknown-amigaos/3.4.6/../../../../m68k-unknown-amigaos/lib/libunix.a(dirent_readdir.o)
                              build-newer-morphos/render_directory.o (_readdir)
/opt/netsurf/m68k-unknown-amigaos/cross/lib/gcc/m68k-unknown-amigaos/3.4.6/../../../../m68k-unknown-amigaos/lib/libunix.a(dirent_closedir.o)
                              /opt/netsurf/m68k-unknown-amigaos/cross/lib/gcc/m68k-unknown-amigaos/3.4.6/../../../../m68k-unknown-amigaos/lib/libunix.a(dirent_opendir.o) (___directory_list)
/opt/netsurf/m68k-unknown-amigaos/cross/lib/gcc/m68k-unknown-amigaos/3.4.6/../../../../m68k-unknown-amigaos/lib/libunix.a(stat_mkdir.o)
                              build-newer-morphos/utils_filename.o (_mkdir)
/opt/netsurf/m68k-unknown-amigaos/cross/lib/gcc/m68k-unknown-amigaos/3.4.6/../../../../m68k-unknown-amigaos/lib/libunix.a(stdio_remove.o)
                              build-newer-morphos/utils_filename.o (_remove)
/opt/netsurf/m68k-unknown-amigaos/cross/lib/gcc/m68k-unknown-amigaos/3.4.6/../../../../m68k-unknown-amigaos/lib/libunix.a(stdio_fflush.o)
                              build-newer-morphos/utils_talloc.o (_fflush)
/opt/netsurf/m68k-unknown-amigaos/cross/lib/gcc/m68k-unknown-amigaos/3.4.6/../../../../m68k-unknown-amigaos/lib/libunix.a(fcntl_open.o)
                              /opt/netsurf/m68k-unknown-amigaos/env/lib/libz.a(gzlib.o) (_open)
/opt/netsurf/m68k-unknown-amigaos/cross/lib/gcc/m68k-unknown-amigaos/3.4.6/../../../../m68k-unknown-amigaos/lib/libunix.a(unistd_getcwd.o)
                              /mnt/e/usr/local/amiga/m68k-amigaos/clib/extra/ns-lib/libxml2.a(xmlIO.o) (_getcwd)
/opt/netsurf/m68k-unknown-amigaos/cross/lib/gcc/m68k-unknown-amigaos/3.4.6/../../../../m68k-unknown-amigaos/lib/libunix.a(fcntl_fcntl.o)
                              /mnt/e/usr/local/amiga/m68k-amigaos/clib/extra/ns-lib/libxml2.a(nanohttp.o) (_fcntl)
/opt/netsurf/m68k-unknown-amigaos/cross/lib/gcc/m68k-unknown-amigaos/3.4.6/../../../../m68k-unknown-amigaos/lib/libunix.a(unistd_unlink.o)
                              /opt/netsurf/m68k-unknown-amigaos/env/lib/libcurl.a(libcurl_la-hsts.o) (_unlink)
/opt/netsurf/m68k-unknown-amigaos/cross/lib/gcc/m68k-unknown-amigaos/3.4.6/../../../../m68k-unknown-amigaos/lib/libunix.a(stat_fstat.o)
                              /opt/netsurf/m68k-unknown-amigaos/env/lib/libcurl.a(libcurl_la-file.o) (_fstat)
/opt/netsurf/m68k-unknown-amigaos/cross/lib/gcc/m68k-unknown-amigaos/3.4.6/../../../../m68k-unknown-amigaos/lib/libunix.a(stdio_rename.o)
                              /opt/netsurf/m68k-unknown-amigaos/env/lib/libcurl.a(libcurl_la-rename.o) (_rename)
/opt/netsurf/m68k-unknown-amigaos/cross/lib/gcc/m68k-unknown-amigaos/3.4.6/../../../../m68k-unknown-amigaos/lib/libunix.a(stdlib_arg.o)
                              /opt/netsurf/m68k-unknown-amigaos/cross/lib/gcc/m68k-unknown-amigaos/3.4.6/../../../../m68k-unknown-amigaos/lib/libunix.a(stdlib_main.o) (___argv)
/opt/netsurf/m68k-unknown-amigaos/cross/lib/gcc/m68k-unknown-amigaos/3.4.6/../../../../m68k-unknown-amigaos/lib/libunix.a(stdio_file_init.o)
                              /opt/netsurf/m68k-unknown-amigaos/cross/lib/gcc/m68k-unknown-amigaos/3.4.6/../../../../m68k-unknown-amigaos/lib/libunix.a(stdlib_main.o) (___WBenchMsg)
/opt/netsurf/m68k-unknown-amigaos/cross/lib/gcc/m68k-unknown-amigaos/3.4.6/../../../../m68k-unknown-amigaos/lib/libunix.a(stdlib_alloca_cleanup.o)
                              /opt/netsurf/m68k-unknown-amigaos/cross/lib/gcc/m68k-unknown-amigaos/3.4.6/../../../../m68k-unknown-amigaos/lib/libunix.a(stdlib_malloc.o) (___alloca_cleanup)
/opt/netsurf/m68k-unknown-amigaos/cross/lib/gcc/m68k-unknown-amigaos/3.4.6/../../../../m68k-unknown-amigaos/lib/libunix.a(unistd_unix_path_semantics.o)
                              /opt/netsurf/m68k-unknown-amigaos/cross/lib/gcc/m68k-unknown-amigaos/3.4.6/../../../../m68k-unknown-amigaos/lib/libunix.a(stat_stat.o) (___unix_path_semantics)
/opt/netsurf/m68k-unknown-amigaos/cross/lib/gcc/m68k-unknown-amigaos/3.4.6/../../../../m68k-unknown-amigaos/lib/libunix.a(unistd_translateu2a.o)
                              /opt/netsurf/m68k-unknown-amigaos/cross/lib/gcc/m68k-unknown-amigaos/3.4.6/../../../../m68k-unknown-amigaos/lib/libunix.a(stat_stat.o) (___translate_unix_to_amiga_path_name)
/opt/netsurf/m68k-unknown-amigaos/cross/lib/gcc/m68k-unknown-amigaos/3.4.6/../../../../m68k-unknown-amigaos/lib/libunix.a(stdio_openiob.o)
                              /opt/netsurf/m68k-unknown-amigaos/cross/lib/gcc/m68k-unknown-amigaos/3.4.6/../../../../m68k-unknown-amigaos/lib/libunix.a(stdio_fopen.o) (___open_iob)
/opt/netsurf/m68k-unknown-amigaos/cross/lib/gcc/m68k-unknown-amigaos/3.4.6/../../../../m68k-unknown-amigaos/lib/libunix.a(stdio_fdhookentry.o)
                              /opt/netsurf/m68k-unknown-amigaos/cross/lib/gcc/m68k-unknown-amigaos/3.4.6/../../../../m68k-unknown-amigaos/lib/libunix.a(fcntl_open.o) (___fd_hook_entry)
/opt/netsurf/m68k-unknown-amigaos/cross/lib/gcc/m68k-unknown-amigaos/3.4.6/../../../../m68k-unknown-amigaos/lib/libunix.a(unistd_translatea2u.o)
                              /opt/netsurf/m68k-unknown-amigaos/cross/lib/gcc/m68k-unknown-amigaos/3.4.6/../../../../m68k-unknown-amigaos/lib/libunix.a(unistd_getcwd.o) (___translate_amiga_to_unix_path_name)
/opt/netsurf/m68k-unknown-amigaos/cross/lib/gcc/m68k-unknown-amigaos/3.4.6/../../../../m68k-unknown-amigaos/lib/libunix.a(stdio_record_locking.o)
                              /opt/netsurf/m68k-unknown-amigaos/cross/lib/gcc/m68k-unknown-amigaos/3.4.6/../../../../m68k-unknown-amigaos/lib/libunix.a(fcntl_fcntl.o) (___handle_record_locking)
/opt/netsurf/m68k-unknown-amigaos/cross/lib/gcc/m68k-unknown-amigaos/3.4.6/../../../../m68k-unknown-amigaos/lib/libunix.a(stdlib_expand_wildcard.o)
                              /opt/netsurf/m68k-unknown-amigaos/cross/lib/gcc/m68k-unknown-amigaos/3.4.6/../../../../m68k-unknown-amigaos/lib/libunix.a(stdlib_arg.o) (___expand_wildcard_args)
/opt/netsurf/m68k-unknown-amigaos/cross/lib/gcc/m68k-unknown-amigaos/3.4.6/../../../../m68k-unknown-amigaos/lib/libunix.a(stdlib_expand_wildcard_check.o)
                              /opt/netsurf/m68k-unknown-amigaos/cross/lib/gcc/m68k-unknown-amigaos/3.4.6/../../../../m68k-unknown-amigaos/lib/libunix.a(stdlib_arg.o) (___expand_wildcard_args_check)
/opt/netsurf/m68k-unknown-amigaos/cross/lib/gcc/m68k-unknown-amigaos/3.4.6/../../../../m68k-unknown-amigaos/lib/libunix.a(unistd_wildcard_expand.o)
                              /opt/netsurf/m68k-unknown-amigaos/cross/lib/gcc/m68k-unknown-amigaos/3.4.6/../../../../m68k-unknown-amigaos/lib/libunix.a(stdlib_arg.o) (___wildcard_quote_parameter)
/opt/netsurf/m68k-unknown-amigaos/cross/lib/gcc/m68k-unknown-amigaos/3.4.6/../../../../m68k-unknown-amigaos/lib/libunix.a(unistd_chdir_exit.o)
                              /opt/netsurf/m68k-unknown-amigaos/cross/lib/gcc/m68k-unknown-amigaos/3.4.6/../../../../m68k-unknown-amigaos/lib/libunix.a(stdio_file_init.o) (___current_directory_changed)
/opt/netsurf/m68k-unknown-amigaos/cross/lib/gcc/m68k-unknown-amigaos/3.4.6/../../../../m68k-unknown-amigaos/lib/libunix.a(unistd_translaterel.o)
                              /opt/netsurf/m68k-unknown-amigaos/cross/lib/gcc/m68k-unknown-amigaos/3.4.6/../../../../m68k-unknown-amigaos/lib/libunix.a(unistd_translateu2a.o) (___translate_relative_path_name)
/opt/netsurf/m68k-unknown-amigaos/cross/lib/gcc/m68k-unknown-amigaos/3.4.6/../../../../m68k-unknown-amigaos/lib/libunix.a(unistd_strip_double_slash.o)
                              /opt/netsurf/m68k-unknown-amigaos/cross/lib/gcc/m68k-unknown-amigaos/3.4.6/../../../../m68k-unknown-amigaos/lib/libunix.a(unistd_translateu2a.o) (___strip_double_slash)
/opt/netsurf/m68k-unknown-amigaos/cross/lib/gcc/m68k-unknown-amigaos/3.4.6/../../../../m68k-unknown-amigaos/lib/libunix.a(stdio_locksemaphorename.o)
                              /opt/netsurf/m68k-unknown-amigaos/cross/lib/gcc/m68k-unknown-amigaos/3.4.6/../../../../m68k-unknown-amigaos/lib/libunix.a(stdio_record_locking.o) (___file_lock_semaphore_name)
/opt/netsurf/m68k-unknown-amigaos/cross/lib/gcc/m68k-unknown-amigaos/3.4.6/../../../../m68k-unknown-amigaos/lib/libm.a(stdio_vsprintf.o)
                              build-newer-morphos/content_content.o (_vsprintf)
/opt/netsurf/m68k-unknown-amigaos/cross/lib/gcc/m68k-unknown-amigaos/3.4.6/../../../../m68k-unknown-amigaos/lib/libm.a(stdio_vsnprintf.o)
                              build-newer-morphos/content_content.o (_vsnprintf)
/opt/netsurf/m68k-unknown-amigaos/cross/lib/gcc/m68k-unknown-amigaos/3.4.6/../../../../m68k-unknown-amigaos/lib/libm.a(stdio_snprintf.o)
                              build-newer-morphos/content_content.o (_snprintf)
/opt/netsurf/m68k-unknown-amigaos/cross/lib/gcc/m68k-unknown-amigaos/3.4.6/../../../../m68k-unknown-amigaos/lib/libm.a(stdio_fprintf.o)
                              build-newer-morphos/content_urldb.o (_fprintf)
/opt/netsurf/m68k-unknown-amigaos/cross/lib/gcc/m68k-unknown-amigaos/3.4.6/../../../../m68k-unknown-amigaos/lib/libm.a(stdlib_atof.o)
                              build-newer-morphos/css_ruleset.o (_atof)
/opt/netsurf/m68k-unknown-amigaos/cross/lib/gcc/m68k-unknown-amigaos/3.4.6/../../../../m68k-unknown-amigaos/lib/libm.a(math_cos.o)
                              build-newer-morphos/mui_plotters.o (_cos)
/opt/netsurf/m68k-unknown-amigaos/cross/lib/gcc/m68k-unknown-amigaos/3.4.6/../../../../m68k-unknown-amigaos/lib/libm.a(math_sin.o)
                              build-newer-morphos/mui_plotters.o (_sin)
/opt/netsurf/m68k-unknown-amigaos/cross/lib/gcc/m68k-unknown-amigaos/3.4.6/../../../../m68k-unknown-amigaos/lib/libm.a(stdio_printf.o)
                              build-newer-morphos/mui_search.o (_printf)
/opt/netsurf/m68k-unknown-amigaos/cross/lib/gcc/m68k-unknown-amigaos/3.4.6/../../../../m68k-unknown-amigaos/lib/libm.a(math_ceilf.o)
                              build-newer-morphos/render_html_redraw.o (_ceilf)
/opt/netsurf/m68k-unknown-amigaos/cross/lib/gcc/m68k-unknown-amigaos/3.4.6/../../../../m68k-unknown-amigaos/lib/libm.a(math_ceil.o)
                              build-newer-morphos/render_layout.o (_ceil)
/opt/netsurf/m68k-unknown-amigaos/cross/lib/gcc/m68k-unknown-amigaos/3.4.6/../../../../m68k-unknown-amigaos/lib/libm.a(stdio_sscanf.o)
                              /opt/netsurf/m68k-unknown-amigaos/env/lib/libjpeg.a(jmemmgr.o) (_sscanf)
/opt/netsurf/m68k-unknown-amigaos/cross/lib/gcc/m68k-unknown-amigaos/3.4.6/../../../../m68k-unknown-amigaos/lib/libm.a(math_floatsidf.o)
                              /opt/netsurf/m68k-unknown-amigaos/env/lib/libjpeg.a(jddctmgr.o) (___floatsidf)
/opt/netsurf/m68k-unknown-amigaos/cross/lib/gcc/m68k-unknown-amigaos/3.4.6/../../../../m68k-unknown-amigaos/lib/libm.a(math_adddf3.o)
                              /opt/netsurf/m68k-unknown-amigaos/env/lib/libjpeg.a(jddctmgr.o) (___adddf3)
/opt/netsurf/m68k-unknown-amigaos/cross/lib/gcc/m68k-unknown-amigaos/3.4.6/../../../../m68k-unknown-amigaos/lib/libm.a(math_muldf3.o)
                              /opt/netsurf/m68k-unknown-amigaos/env/lib/libjpeg.a(jddctmgr.o) (___muldf3)
/opt/netsurf/m68k-unknown-amigaos/cross/lib/gcc/m68k-unknown-amigaos/3.4.6/../../../../m68k-unknown-amigaos/lib/libm.a(math_truncdfsf2.o)
                              /opt/netsurf/m68k-unknown-amigaos/env/lib/libjpeg.a(jddctmgr.o) (___truncdfsf2)
/opt/netsurf/m68k-unknown-amigaos/cross/lib/gcc/m68k-unknown-amigaos/3.4.6/../../../../m68k-unknown-amigaos/lib/libm.a(math_floatsisf.o)
                              /opt/netsurf/m68k-unknown-amigaos/env/lib/libjpeg.a(jidctflt.o) (___floatsisf)
/opt/netsurf/m68k-unknown-amigaos/cross/lib/gcc/m68k-unknown-amigaos/3.4.6/../../../../m68k-unknown-amigaos/lib/libm.a(math_mulsf3.o)
                              /opt/netsurf/m68k-unknown-amigaos/env/lib/libjpeg.a(jidctflt.o) (___mulsf3)
/opt/netsurf/m68k-unknown-amigaos/cross/lib/gcc/m68k-unknown-amigaos/3.4.6/../../../../m68k-unknown-amigaos/lib/libm.a(math_addsf3.o)
                              /opt/netsurf/m68k-unknown-amigaos/env/lib/libjpeg.a(jidctflt.o) (___addsf3)
/opt/netsurf/m68k-unknown-amigaos/cross/lib/gcc/m68k-unknown-amigaos/3.4.6/../../../../m68k-unknown-amigaos/lib/libm.a(math_subsf3.o)
                              /opt/netsurf/m68k-unknown-amigaos/env/lib/libjpeg.a(jidctflt.o) (___subsf3)
/opt/netsurf/m68k-unknown-amigaos/cross/lib/gcc/m68k-unknown-amigaos/3.4.6/../../../../m68k-unknown-amigaos/lib/libm.a(math_fixsfsi.o)
                              /opt/netsurf/m68k-unknown-amigaos/env/lib/libjpeg.a(jidctflt.o) (___fixsfsi)
/opt/netsurf/m68k-unknown-amigaos/cross/lib/gcc/m68k-unknown-amigaos/3.4.6/../../../../m68k-unknown-amigaos/lib/libm.a(stdio_vfprintf.o)
                              /mnt/e/usr/local/amiga/m68k-amigaos/clib/extra/ns-lib/libxml2.a(error.o) (_vfprintf)
/opt/netsurf/m68k-unknown-amigaos/cross/lib/gcc/m68k-unknown-amigaos/3.4.6/../../../../m68k-unknown-amigaos/lib/libm.a(math_eqdf2.o)
                              /mnt/e/usr/local/amiga/m68k-amigaos/clib/extra/ns-lib/libxml2.a(xpath.o) (___eqdf2)
/opt/netsurf/m68k-unknown-amigaos/cross/lib/gcc/m68k-unknown-amigaos/3.4.6/../../../../m68k-unknown-amigaos/lib/libm.a(math_nan.o)
                              /mnt/e/usr/local/amiga/m68k-amigaos/clib/extra/ns-lib/libxml2.a(xpath.o) (_nan)
/opt/netsurf/m68k-unknown-amigaos/cross/lib/gcc/m68k-unknown-amigaos/3.4.6/../../../../m68k-unknown-amigaos/lib/libm.a(math_fpclassify.o)
                              /mnt/e/usr/local/amiga/m68k-amigaos/clib/extra/ns-lib/libxml2.a(xpath.o) (___fpclassify_double)
/opt/netsurf/m68k-unknown-amigaos/cross/lib/gcc/m68k-unknown-amigaos/3.4.6/../../../../m68k-unknown-amigaos/lib/libm.a(math_gtdf2.o)
                              /mnt/e/usr/local/amiga/m68k-amigaos/clib/extra/ns-lib/libxml2.a(xpath.o) (___gtdf2)
/opt/netsurf/m68k-unknown-amigaos/cross/lib/gcc/m68k-unknown-amigaos/3.4.6/../../../../m68k-unknown-amigaos/lib/libm.a(math_signbit.o)
                              /mnt/e/usr/local/amiga/m68k-amigaos/clib/extra/ns-lib/libxml2.a(xpath.o) (___signbit_double)
/opt/netsurf/m68k-unknown-amigaos/cross/lib/gcc/m68k-unknown-amigaos/3.4.6/../../../../m68k-unknown-amigaos/lib/libm.a(math_fixdfsi.o)
                              /mnt/e/usr/local/amiga/m68k-amigaos/clib/extra/ns-lib/libxml2.a(xpath.o) (___fixdfsi)
/opt/netsurf/m68k-unknown-amigaos/cross/lib/gcc/m68k-unknown-amigaos/3.4.6/../../../../m68k-unknown-amigaos/lib/libm.a(math_nedf2.o)
                              /mnt/e/usr/local/amiga/m68k-amigaos/clib/extra/ns-lib/libxml2.a(xpath.o) (___nedf2)
/opt/netsurf/m68k-unknown-amigaos/cross/lib/gcc/m68k-unknown-amigaos/3.4.6/../../../../m68k-unknown-amigaos/lib/libm.a(math_ltdf2.o)
                              /mnt/e/usr/local/amiga/m68k-amigaos/clib/extra/ns-lib/libxml2.a(xpath.o) (___ltdf2)
/opt/netsurf/m68k-unknown-amigaos/cross/lib/gcc/m68k-unknown-amigaos/3.4.6/../../../../m68k-unknown-amigaos/lib/libm.a(math_log10.o)
                              /mnt/e/usr/local/amiga/m68k-amigaos/clib/extra/ns-lib/libxml2.a(xpath.o) (_log10)
/opt/netsurf/m68k-unknown-amigaos/cross/lib/gcc/m68k-unknown-amigaos/3.4.6/../../../../m68k-unknown-amigaos/lib/libm.a(math_pow.o)
                              /mnt/e/usr/local/amiga/m68k-amigaos/clib/extra/ns-lib/libxml2.a(xpath.o) (_pow)
/opt/netsurf/m68k-unknown-amigaos/cross/lib/gcc/m68k-unknown-amigaos/3.4.6/../../../../m68k-unknown-amigaos/lib/libm.a(math_divdf3.o)
                              /mnt/e/usr/local/amiga/m68k-amigaos/clib/extra/ns-lib/libxml2.a(xpath.o) (___divdf3)
/opt/netsurf/m68k-unknown-amigaos/cross/lib/gcc/m68k-unknown-amigaos/3.4.6/../../../../m68k-unknown-amigaos/lib/libm.a(math_fmod.o)
                              /mnt/e/usr/local/amiga/m68k-amigaos/clib/extra/ns-lib/libxml2.a(xpath.o) (_fmod)
/opt/netsurf/m68k-unknown-amigaos/cross/lib/gcc/m68k-unknown-amigaos/3.4.6/../../../../m68k-unknown-amigaos/lib/libm.a(math_subdf3.o)
                              /mnt/e/usr/local/amiga/m68k-amigaos/clib/extra/ns-lib/libxml2.a(xpath.o) (___subdf3)
/opt/netsurf/m68k-unknown-amigaos/cross/lib/gcc/m68k-unknown-amigaos/3.4.6/../../../../m68k-unknown-amigaos/lib/libm.a(math_ledf2.o)
                              /mnt/e/usr/local/amiga/m68k-amigaos/clib/extra/ns-lib/libxml2.a(xpath.o) (___ledf2)
/opt/netsurf/m68k-unknown-amigaos/cross/lib/gcc/m68k-unknown-amigaos/3.4.6/../../../../m68k-unknown-amigaos/lib/libm.a(math_gedf2.o)
                              /mnt/e/usr/local/amiga/m68k-amigaos/clib/extra/ns-lib/libxml2.a(xpath.o) (___gedf2)
/opt/netsurf/m68k-unknown-amigaos/cross/lib/gcc/m68k-unknown-amigaos/3.4.6/../../../../m68k-unknown-amigaos/lib/libm.a(math_extendsfdf2.o)
                              /mnt/e/usr/local/amiga/m68k-amigaos/clib/extra/ns-lib/libxml2.a(xpath.o) (___extendsfdf2)
/opt/netsurf/m68k-unknown-amigaos/cross/lib/gcc/m68k-unknown-amigaos/3.4.6/../../../../m68k-unknown-amigaos/lib/libm.a(math_floor.o)
                              /mnt/e/usr/local/amiga/m68k-amigaos/clib/extra/ns-lib/libxml2.a(xmlschemastypes.o) (_floor)
/opt/netsurf/m68k-unknown-amigaos/cross/lib/gcc/m68k-unknown-amigaos/3.4.6/../../../../m68k-unknown-amigaos/lib/libm.a(math_fixunsdfsi.o)
                              /mnt/e/usr/local/amiga/m68k-amigaos/clib/extra/ns-lib/libxml2.a(xmlschemastypes.o) (___fixunsdfsi)
/opt/netsurf/m68k-unknown-amigaos/cross/lib/gcc/m68k-unknown-amigaos/3.4.6/../../../../m68k-unknown-amigaos/lib/libm.a(math_frexp.o)
                              lib/libpng12.a(png.o) (_frexp)
/opt/netsurf/m68k-unknown-amigaos/cross/lib/gcc/m68k-unknown-amigaos/3.4.6/../../../../m68k-unknown-amigaos/lib/libm.a(math_modf.o)
                              lib/libpng12.a(png.o) (_modf)
/opt/netsurf/m68k-unknown-amigaos/cross/lib/gcc/m68k-unknown-amigaos/3.4.6/../../../../m68k-unknown-amigaos/lib/libm.a(stdio_flush_all_files.o)
                              /opt/netsurf/m68k-unknown-amigaos/cross/lib/gcc/m68k-unknown-amigaos/3.4.6/../../../../m68k-unknown-amigaos/lib/libunix.a(stdlib_main.o) (___flush_all_files)
/opt/netsurf/m68k-unknown-amigaos/cross/lib/gcc/m68k-unknown-amigaos/3.4.6/../../../../m68k-unknown-amigaos/lib/libm.a(stdlib_strtod.o)
                              /opt/netsurf/m68k-unknown-amigaos/cross/lib/gcc/m68k-unknown-amigaos/3.4.6/../../../../m68k-unknown-amigaos/lib/libm.a(stdlib_atof.o) (_strtod)
/opt/netsurf/m68k-unknown-amigaos/cross/lib/gcc/m68k-unknown-amigaos/3.4.6/../../../../m68k-unknown-amigaos/lib/libm.a(math_init_exit.o)
                              /opt/netsurf/m68k-unknown-amigaos/cross/lib/gcc/m68k-unknown-amigaos/3.4.6/../../../../m68k-unknown-amigaos/lib/libm.a(math_floatsisf.o) (_MathIeeeSingBasBase)
/opt/netsurf/m68k-unknown-amigaos/cross/lib/gcc/m68k-unknown-amigaos/3.4.6/../../../../m68k-unknown-amigaos/lib/libm.a(math_gtsf2.o)
                              /opt/netsurf/m68k-unknown-amigaos/cross/lib/gcc/m68k-unknown-amigaos/3.4.6/../../../../m68k-unknown-amigaos/lib/libm.a(math_ceilf.o) (___gtsf2)
/opt/netsurf/m68k-unknown-amigaos/cross/lib/gcc/m68k-unknown-amigaos/3.4.6/../../../../m68k-unknown-amigaos/lib/libm.a(stdio_vsscanf.o)
                              /opt/netsurf/m68k-unknown-amigaos/cross/lib/gcc/m68k-unknown-amigaos/3.4.6/../../../../m68k-unknown-amigaos/lib/libm.a(stdio_sscanf.o) (_vsscanf)
/opt/netsurf/m68k-unknown-amigaos/cross/lib/gcc/m68k-unknown-amigaos/3.4.6/../../../../m68k-unknown-amigaos/lib/libm.a(stdio_flush.o)
                              /opt/netsurf/m68k-unknown-amigaos/cross/lib/gcc/m68k-unknown-amigaos/3.4.6/../../../../m68k-unknown-amigaos/lib/libm.a(stdio_vfprintf.o) (___flush)
/opt/netsurf/m68k-unknown-amigaos/cross/lib/gcc/m68k-unknown-amigaos/3.4.6/../../../../m68k-unknown-amigaos/lib/libm.a(math_inf.o)
                              /opt/netsurf/m68k-unknown-amigaos/cross/lib/gcc/m68k-unknown-amigaos/3.4.6/../../../../m68k-unknown-amigaos/lib/libm.a(math_log10.o) (___inf)
/opt/netsurf/m68k-unknown-amigaos/cross/lib/gcc/m68k-unknown-amigaos/3.4.6/../../../../m68k-unknown-amigaos/lib/libm.a(math_huge_val.o)
                              /opt/netsurf/m68k-unknown-amigaos/cross/lib/gcc/m68k-unknown-amigaos/3.4.6/../../../../m68k-unknown-amigaos/lib/libm.a(math_pow.o) (___get_huge_val)
/opt/netsurf/m68k-unknown-amigaos/cross/lib/gcc/m68k-unknown-amigaos/3.4.6/../../../../m68k-unknown-amigaos/lib/libm.a(math_fabs.o)
                              /opt/netsurf/m68k-unknown-amigaos/cross/lib/gcc/m68k-unknown-amigaos/3.4.6/../../../../m68k-unknown-amigaos/lib/libm.a(math_pow.o) (_fabs)
/opt/netsurf/m68k-unknown-amigaos/cross/lib/gcc/m68k-unknown-amigaos/3.4.6/../../../../m68k-unknown-amigaos/lib/libm.a(stdio_vfscanf.o)
                              /opt/netsurf/m68k-unknown-amigaos/cross/lib/gcc/m68k-unknown-amigaos/3.4.6/../../../../m68k-unknown-amigaos/lib/libm.a(stdio_vsscanf.o) (_vfscanf)
/opt/netsurf/m68k-unknown-amigaos/cross/lib/gcc/m68k-unknown-amigaos/3.4.6/../../../../m68k-unknown-amigaos/lib/libc.a(strings_strcasecmp.o)
                              build-newer-morphos/content_content.o (_strcasecmp)
/opt/netsurf/m68k-unknown-amigaos/cross/lib/gcc/m68k-unknown-amigaos/3.4.6/../../../../m68k-unknown-amigaos/lib/libc.a(stdlib_bsearch.o)
                              build-newer-morphos/content_content.o (_bsearch)
/opt/netsurf/m68k-unknown-amigaos/cross/lib/gcc/m68k-unknown-amigaos/3.4.6/../../../../m68k-unknown-amigaos/lib/libc.a(string_strcmp.o)
                              build-newer-morphos/content_content.o (_strcmp)
/opt/netsurf/m68k-unknown-amigaos/cross/lib/gcc/m68k-unknown-amigaos/3.4.6/../../../../m68k-unknown-amigaos/lib/libc.a(stdlib_assertion_failure.o)
                              build-newer-morphos/content_content.o (___assertion_failure)
/opt/netsurf/m68k-unknown-amigaos/cross/lib/gcc/m68k-unknown-amigaos/3.4.6/../../../../m68k-unknown-amigaos/lib/libc.a(string_bcopy.o)
                              build-newer-morphos/content_content.o (_bcopy)
/opt/netsurf/m68k-unknown-amigaos/cross/lib/gcc/m68k-unknown-amigaos/3.4.6/../../../../m68k-unknown-amigaos/lib/libc.a(string_strdup.o)
                              build-newer-morphos/content_fetch.o (_strdup)
/opt/netsurf/m68k-unknown-amigaos/cross/lib/gcc/m68k-unknown-amigaos/3.4.6/../../../../m68k-unknown-amigaos/lib/libc.a(stdlib_free.o)
                              /opt/netsurf/m68k-unknown-amigaos/cross/lib/gcc/m68k-unknown-amigaos/3.4.6/../../../../m68k-unknown-amigaos/lib/libunix.a(stdlib_realloc.o) (___find_memory_node)
/opt/netsurf/m68k-unknown-amigaos/cross/lib/gcc/m68k-unknown-amigaos/3.4.6/../../../../m68k-unknown-amigaos/lib/libc.a(string_strchr.o)
                              build-newer-morphos/content_fetch.o (_strchr)
/opt/netsurf/m68k-unknown-amigaos/cross/lib/gcc/m68k-unknown-amigaos/3.4.6/../../../../m68k-unknown-amigaos/lib/libc.a(string_strlen.o)
                              build-newer-morphos/content_fetch.o (_strlen)
/opt/netsurf/m68k-unknown-amigaos/cross/lib/gcc/m68k-unknown-amigaos/3.4.6/../../../../m68k-unknown-amigaos/lib/libc.a(string_strncmp.o)
                              build-newer-morphos/content_fetch.o (_strncmp)
/opt/netsurf/m68k-unknown-amigaos/cross/lib/gcc/m68k-unknown-amigaos/3.4.6/../../../../m68k-unknown-amigaos/lib/libc.a(strings_strncasecmp.o)
                              build-newer-morphos/content_fetchcache.o (_strncasecmp)
/opt/netsurf/m68k-unknown-amigaos/cross/lib/gcc/m68k-unknown-amigaos/3.4.6/../../../../m68k-unknown-amigaos/lib/libc.a(time_time.o)
                              build-newer-morphos/content_fetchcache.o (_time)
/opt/netsurf/m68k-unknown-amigaos/cross/lib/gcc/m68k-unknown-amigaos/3.4.6/../../../../m68k-unknown-amigaos/lib/libc.a(stdlib_atoi.o)
                              build-newer-morphos/content_fetchcache.o (_atoi)
/opt/netsurf/m68k-unknown-amigaos/cross/lib/gcc/m68k-unknown-amigaos/3.4.6/../../../../m68k-unknown-amigaos/lib/libc.a(string_strncpy.o)
                              build-newer-morphos/content_fetchcache.o (_strncpy)
/opt/netsurf/m68k-unknown-amigaos/cross/lib/gcc/m68k-unknown-amigaos/3.4.6/../../../../m68k-unknown-amigaos/lib/libc.a(string_bzero.o)
                              build-newer-morphos/content_fetchers_fetch_curl.o (_bzero)
/opt/netsurf/m68k-unknown-amigaos/cross/lib/gcc/m68k-unknown-amigaos/3.4.6/../../../../m68k-unknown-amigaos/lib/libc.a(stdlib_atol.o)
                              build-newer-morphos/content_fetchers_fetch_curl.o (_atol)
/opt/netsurf/m68k-unknown-amigaos/cross/lib/gcc/m68k-unknown-amigaos/3.4.6/../../../../m68k-unknown-amigaos/lib/libc.a(string_strrchr.o)
                              build-newer-morphos/content_fetchers_fetch_curl.o (_strrchr)
/opt/netsurf/m68k-unknown-amigaos/cross/lib/gcc/m68k-unknown-amigaos/3.4.6/../../../../m68k-unknown-amigaos/lib/libc.a(stdlib_calloc.o)
                              build-newer-morphos/content_fetchers_fetch_data.o (_calloc)
/opt/netsurf/m68k-unknown-amigaos/cross/lib/gcc/m68k-unknown-amigaos/3.4.6/../../../../m68k-unknown-amigaos/lib/libc.a(stdio_fgets.o)
                              build-newer-morphos/content_urldb.o (_fgets)
/opt/netsurf/m68k-unknown-amigaos/cross/lib/gcc/m68k-unknown-amigaos/3.4.6/../../../../m68k-unknown-amigaos/lib/libc.a(stdio_fclose.o)
                              build-newer-morphos/content_urldb.o (_fclose)
/opt/netsurf/m68k-unknown-amigaos/cross/lib/gcc/m68k-unknown-amigaos/3.4.6/../../../../m68k-unknown-amigaos/lib/libc.a(stdio_fputc.o)
                              /opt/netsurf/m68k-unknown-amigaos/cross/lib/gcc/m68k-unknown-amigaos/3.4.6/../../../../m68k-unknown-amigaos/lib/libm.a(stdio_vfprintf.o) (___fputc_check)
/opt/netsurf/m68k-unknown-amigaos/cross/lib/gcc/m68k-unknown-amigaos/3.4.6/../../../../m68k-unknown-amigaos/lib/libc.a(string_strstr.o)
                              build-newer-morphos/content_urldb.o (_strstr)
/opt/netsurf/m68k-unknown-amigaos/cross/lib/gcc/m68k-unknown-amigaos/3.4.6/../../../../m68k-unknown-amigaos/lib/libc.a(string_strcpy.o)
                              build-newer-morphos/content_urldb.o (_strcpy)
/opt/netsurf/m68k-unknown-amigaos/cross/lib/gcc/m68k-unknown-amigaos/3.4.6/../../../../m68k-unknown-amigaos/lib/libc.a(stdlib_qsort.o)
                              build-newer-morphos/content_urldb.o (_qsort)
/opt/netsurf/m68k-unknown-amigaos/cross/lib/gcc/m68k-unknown-amigaos/3.4.6/../../../../m68k-unknown-amigaos/lib/libc.a(ctype_isalpha.o)
                              build-newer-morphos/content_urldb.o (_isalpha)
/opt/netsurf/m68k-unknown-amigaos/cross/lib/gcc/m68k-unknown-amigaos/3.4.6/../../../../m68k-unknown-amigaos/lib/libc.a(ctype_tolower.o)
                              build-newer-morphos/content_urldb.o (_tolower)
/opt/netsurf/m68k-unknown-amigaos/cross/lib/gcc/m68k-unknown-amigaos/3.4.6/../../../../m68k-unknown-amigaos/lib/libc.a(stdio_fputs.o)
                              build-newer-morphos/content_urldb.o (_fputs)
/opt/netsurf/m68k-unknown-amigaos/cross/lib/gcc/m68k-unknown-amigaos/3.4.6/../../../../m68k-unknown-amigaos/lib/libc.a(string_memmove.o)
                              build-newer-morphos/content_urldb.o (_memmove)
/opt/netsurf/m68k-unknown-amigaos/cross/lib/gcc/m68k-unknown-amigaos/3.4.6/../../../../m68k-unknown-amigaos/lib/libc.a(ctype_isdigit.o)
                              build-newer-morphos/content_urldb.o (_isdigit)
/opt/netsurf/m68k-unknown-amigaos/cross/lib/gcc/m68k-unknown-amigaos/3.4.6/../../../../m68k-unknown-amigaos/lib/libc.a(string_strpbrk.o)
                              build-newer-morphos/content_urldb.o (_strpbrk)
/opt/netsurf/m68k-unknown-amigaos/cross/lib/gcc/m68k-unknown-amigaos/3.4.6/../../../../m68k-unknown-amigaos/lib/libc.a(stdio_fwrite.o)
                              build-newer-morphos/css_css.o (_fwrite)
/opt/netsurf/m68k-unknown-amigaos/cross/lib/gcc/m68k-unknown-amigaos/3.4.6/../../../../m68k-unknown-amigaos/lib/libc.a(string_strspn.o)
                              build-newer-morphos/css_ruleset.o (_strspn)
/opt/netsurf/m68k-unknown-amigaos/cross/lib/gcc/m68k-unknown-amigaos/3.4.6/../../../../m68k-unknown-amigaos/lib/libc.a(time_localtime.o)
                              build-newer-morphos/desktop_history_core.o (_localtime)
/opt/netsurf/m68k-unknown-amigaos/cross/lib/gcc/m68k-unknown-amigaos/3.4.6/../../../../m68k-unknown-amigaos/lib/libc.a(stdlib_rand.o)
                              build-newer-morphos/desktop_history_core.o (_rand)
/opt/netsurf/m68k-unknown-amigaos/cross/lib/gcc/m68k-unknown-amigaos/3.4.6/../../../../m68k-unknown-amigaos/lib/libc.a(stdio_setbuf.o)
                              build-newer-morphos/desktop_netsurf.o (_setbuf)
/opt/netsurf/m68k-unknown-amigaos/cross/lib/gcc/m68k-unknown-amigaos/3.4.6/../../../../m68k-unknown-amigaos/lib/libc.a(locale_setlocale.o)
                              build-newer-morphos/desktop_netsurf.o (_setlocale)
/opt/netsurf/m68k-unknown-amigaos/cross/lib/gcc/m68k-unknown-amigaos/3.4.6/../../../../m68k-unknown-amigaos/lib/libc.a(ctype_isspace.o)
                              build-newer-morphos/desktop_textinput.o (_isspace)
/opt/netsurf/m68k-unknown-amigaos/cross/lib/gcc/m68k-unknown-amigaos/3.4.6/../../../../m68k-unknown-amigaos/lib/libc.a(string_memset.o)
                              build-newer-morphos/desktop_textinput.o (_memset)
/opt/netsurf/m68k-unknown-amigaos/cross/lib/gcc/m68k-unknown-amigaos/3.4.6/../../../../m68k-unknown-amigaos/lib/libc.a(time_ctime.o)
                              build-newer-morphos/desktop_tree.o (_ctime)
/opt/netsurf/m68k-unknown-amigaos/cross/lib/gcc/m68k-unknown-amigaos/3.4.6/../../../../m68k-unknown-amigaos/lib/libc.a(stdlib_setjmp.o)
                              build-newer-morphos/image_jpeg.o (_setjmp)
/opt/netsurf/m68k-unknown-amigaos/cross/lib/gcc/m68k-unknown-amigaos/3.4.6/../../../../m68k-unknown-amigaos/lib/libc.a(stdlib_sysbase.o)
                              build-newer-morphos/mui_applicationclass.o (_SysBase)
/opt/netsurf/m68k-unknown-amigaos/cross/lib/gcc/m68k-unknown-amigaos/3.4.6/../../../../m68k-unknown-amigaos/lib/libc.a(stdlib_dosbase.o)
                              build-newer-morphos/mui_applicationclass.o (_DOSBase)
/opt/netsurf/m68k-unknown-amigaos/cross/lib/gcc/m68k-unknown-amigaos/3.4.6/../../../../m68k-unknown-amigaos/lib/libc.a(string_strcat.o)
                              build-newer-morphos/mui_applicationclass.o (_strcat)
/opt/netsurf/m68k-unknown-amigaos/cross/lib/gcc/m68k-unknown-amigaos/3.4.6/../../../../m68k-unknown-amigaos/lib/libc.a(stdlib_exit.o)
                              /opt/netsurf/m68k-unknown-amigaos/cross/lib/gcc/m68k-unknown-amigaos/3.4.6/../../../../m68k-unknown-amigaos/lib/libunix.a(stdlib_main.o) (___exit_value)
/opt/netsurf/m68k-unknown-amigaos/cross/lib/gcc/m68k-unknown-amigaos/3.4.6/../../../../m68k-unknown-amigaos/lib/libc.a(stdlib_atexit.o)
                              build-newer-morphos/mui_gui.o (_atexit)
/opt/netsurf/m68k-unknown-amigaos/cross/lib/gcc/m68k-unknown-amigaos/3.4.6/../../../../m68k-unknown-amigaos/lib/libc.a(time_strftime.o)
                              build-newer-morphos/mui_history.o (_strftime)
/opt/netsurf/m68k-unknown-amigaos/cross/lib/gcc/m68k-unknown-amigaos/3.4.6/../../../../m68k-unknown-amigaos/lib/libc.a(time_mktime.o)
                              build-newer-morphos/mui_history.o (_mktime)
/opt/netsurf/m68k-unknown-amigaos/cross/lib/gcc/m68k-unknown-amigaos/3.4.6/../../../../m68k-unknown-amigaos/lib/libc.a(errno_data.o)
                              build-newer-morphos/mui_save_complete.o (_errno)
/opt/netsurf/m68k-unknown-amigaos/cross/lib/gcc/m68k-unknown-amigaos/3.4.6/../../../../m68k-unknown-amigaos/lib/libc.a(string_strerror.o)
                              build-newer-morphos/mui_save_complete.o (_strerror)
/opt/netsurf/m68k-unknown-amigaos/cross/lib/gcc/m68k-unknown-amigaos/3.4.6/../../../../m68k-unknown-amigaos/lib/libc.a(ctype_toupper.o)
                              build-newer-morphos/mui_search.o (_toupper)
/opt/netsurf/m68k-unknown-amigaos/cross/lib/gcc/m68k-unknown-amigaos/3.4.6/../../../../m68k-unknown-amigaos/lib/libc.a(stdlib_strtol.o)
                              build-newer-morphos/render_box_construct.o (_strtol)
/opt/netsurf/m68k-unknown-amigaos/cross/lib/gcc/m68k-unknown-amigaos/3.4.6/../../../../m68k-unknown-amigaos/lib/libc.a(string_strcspn.o)
                              build-newer-morphos/render_box_construct.o (_strcspn)
/opt/netsurf/m68k-unknown-amigaos/cross/lib/gcc/m68k-unknown-amigaos/3.4.6/../../../../m68k-unknown-amigaos/lib/libc.a(string_strtok.o)
                              build-newer-morphos/render_imagemap.o (_strtok)
/opt/netsurf/m68k-unknown-amigaos/cross/lib/gcc/m68k-unknown-amigaos/3.4.6/../../../../m68k-unknown-amigaos/lib/libc.a(string_memcmp.o)
                              build-newer-morphos/utils_hashtable.o (_memcmp)
/opt/netsurf/m68k-unknown-amigaos/cross/lib/gcc/m68k-unknown-amigaos/3.4.6/../../../../m68k-unknown-amigaos/lib/libc.a(ctype_isalnum.o)
                              build-newer-morphos/utils_locale.o (_isalnum)
/opt/netsurf/m68k-unknown-amigaos/cross/lib/gcc/m68k-unknown-amigaos/3.4.6/../../../../m68k-unknown-amigaos/lib/libc.a(ctype_iscntrl.o)
                              build-newer-morphos/utils_locale.o (_iscntrl)
/opt/netsurf/m68k-unknown-amigaos/cross/lib/gcc/m68k-unknown-amigaos/3.4.6/../../../../m68k-unknown-amigaos/lib/libc.a(ctype_isgraph.o)
                              build-newer-morphos/utils_locale.o (_isgraph)
/opt/netsurf/m68k-unknown-amigaos/cross/lib/gcc/m68k-unknown-amigaos/3.4.6/../../../../m68k-unknown-amigaos/lib/libc.a(ctype_islower.o)
                              build-newer-morphos/utils_locale.o (_islower)
/opt/netsurf/m68k-unknown-amigaos/cross/lib/gcc/m68k-unknown-amigaos/3.4.6/../../../../m68k-unknown-amigaos/lib/libc.a(ctype_isprint.o)
                              build-newer-morphos/utils_locale.o (_isprint)
/opt/netsurf/m68k-unknown-amigaos/cross/lib/gcc/m68k-unknown-amigaos/3.4.6/../../../../m68k-unknown-amigaos/lib/libc.a(ctype_ispunct.o)
                              build-newer-morphos/utils_locale.o (_ispunct)
/opt/netsurf/m68k-unknown-amigaos/cross/lib/gcc/m68k-unknown-amigaos/3.4.6/../../../../m68k-unknown-amigaos/lib/libc.a(ctype_isupper.o)
                              build-newer-morphos/utils_locale.o (_isupper)
/opt/netsurf/m68k-unknown-amigaos/cross/lib/gcc/m68k-unknown-amigaos/3.4.6/../../../../m68k-unknown-amigaos/lib/libc.a(ctype_isxdigit.o)
                              build-newer-morphos/utils_locale.o (_isxdigit)
/opt/netsurf/m68k-unknown-amigaos/cross/lib/gcc/m68k-unknown-amigaos/3.4.6/../../../../m68k-unknown-amigaos/lib/libc.a(stdlib_abort.o)
                              build-newer-morphos/utils_talloc.o (_abort)
/opt/netsurf/m68k-unknown-amigaos/cross/lib/gcc/m68k-unknown-amigaos/3.4.6/../../../../m68k-unknown-amigaos/lib/libc.a(time_gmtime.o)
                              build-newer-morphos/utils_utils.o (_gmtime)
/opt/netsurf/m68k-unknown-amigaos/cross/lib/gcc/m68k-unknown-amigaos/3.4.6/../../../../m68k-unknown-amigaos/lib/libc.a(time_gettimeofday.o)
                              build-newer-morphos/utils_utils.o (_gettimeofday)
/opt/netsurf/m68k-unknown-amigaos/cross/lib/gcc/m68k-unknown-amigaos/3.4.6/../../../../m68k-unknown-amigaos/lib/libc.a(string_memcpy.o)
                              /opt/netsurf/m68k-unknown-amigaos/env/lib/libjpeg.a(jdmarker.o) (_memcpy)
/opt/netsurf/m68k-unknown-amigaos/cross/lib/gcc/m68k-unknown-amigaos/3.4.6/../../../../m68k-unknown-amigaos/lib/libc.a(stdlib_mulsi3.o)
                              /opt/netsurf/m68k-unknown-amigaos/env/lib/libjpeg.a(jdmarker.o) (___mulsi3)
/opt/netsurf/m68k-unknown-amigaos/cross/lib/gcc/m68k-unknown-amigaos/3.4.6/../../../../m68k-unknown-amigaos/lib/libc.a(stdlib_divsi3.o)
                              /opt/netsurf/m68k-unknown-amigaos/env/lib/libjpeg.a(jutils.o) (___divsi3)
/opt/netsurf/m68k-unknown-amigaos/cross/lib/gcc/m68k-unknown-amigaos/3.4.6/../../../../m68k-unknown-amigaos/lib/libc.a(stdlib_modsi3.o)
                              /opt/netsurf/m68k-unknown-amigaos/env/lib/libjpeg.a(jutils.o) (___modsi3)
/opt/netsurf/m68k-unknown-amigaos/cross/lib/gcc/m68k-unknown-amigaos/3.4.6/../../../../m68k-unknown-amigaos/lib/libc.a(stdlib_udivsi3.o)
                              /opt/netsurf/m68k-unknown-amigaos/env/lib/libjpeg.a(jmemmgr.o) (___udivsi3)
/opt/netsurf/m68k-unknown-amigaos/cross/lib/gcc/m68k-unknown-amigaos/3.4.6/../../../../m68k-unknown-amigaos/lib/libc.a(stdlib_getenv.o)
                              /opt/netsurf/m68k-unknown-amigaos/env/lib/libjpeg.a(jmemmgr.o) (_getenv)
/opt/netsurf/m68k-unknown-amigaos/cross/lib/gcc/m68k-unknown-amigaos/3.4.6/../../../../m68k-unknown-amigaos/lib/libc.a(stdlib_umodsi3.o)
                              /opt/netsurf/m68k-unknown-amigaos/env/lib/libjpeg.a(jdinput.o) (___umodsi3)
/opt/netsurf/m68k-unknown-amigaos/cross/lib/gcc/m68k-unknown-amigaos/3.4.6/../../../../m68k-unknown-amigaos/lib/libc.a(fcntl_lseek.o)
                              /opt/netsurf/m68k-unknown-amigaos/env/lib/libz.a(gzlib.o) (_lseek)
/opt/netsurf/m68k-unknown-amigaos/cross/lib/gcc/m68k-unknown-amigaos/3.4.6/../../../../m68k-unknown-amigaos/lib/libc.a(fcntl_read.o)
                              /opt/netsurf/m68k-unknown-amigaos/env/lib/libz.a(gzread.o) (_read)
/opt/netsurf/m68k-unknown-amigaos/cross/lib/gcc/m68k-unknown-amigaos/3.4.6/../../../../m68k-unknown-amigaos/lib/libc.a(string_memchr.o)
                              /opt/netsurf/m68k-unknown-amigaos/env/lib/libz.a(gzread.o) (_memchr)
/opt/netsurf/m68k-unknown-amigaos/cross/lib/gcc/m68k-unknown-amigaos/3.4.6/../../../../m68k-unknown-amigaos/lib/libc.a(fcntl_close.o)
                              /opt/netsurf/m68k-unknown-amigaos/env/lib/libz.a(gzread.o) (_close)
/opt/netsurf/m68k-unknown-amigaos/cross/lib/gcc/m68k-unknown-amigaos/3.4.6/../../../../m68k-unknown-amigaos/lib/libc.a(fcntl_write.o)
                              /opt/netsurf/m68k-unknown-amigaos/env/lib/libz.a(gzwrite.o) (_write)
/opt/netsurf/m68k-unknown-amigaos/cross/lib/gcc/m68k-unknown-amigaos/3.4.6/../../../../m68k-unknown-amigaos/lib/libc.a(stdio_fread.o)
                              /mnt/e/usr/local/amiga/m68k-amigaos/clib/extra/ns-lib/libxml2.a(xmlIO.o) (_fread)
/opt/netsurf/m68k-unknown-amigaos/cross/lib/gcc/m68k-unknown-amigaos/3.4.6/../../../../m68k-unknown-amigaos/lib/libc.a(stdio_ferror.o)
                              /mnt/e/usr/local/amiga/m68k-amigaos/clib/extra/ns-lib/libxml2.a(xmlIO.o) (_ferror)
/opt/netsurf/m68k-unknown-amigaos/cross/lib/gcc/m68k-unknown-amigaos/3.4.6/../../../../m68k-unknown-amigaos/lib/libc.a(unistd_fileno.o)
                              /mnt/e/usr/local/amiga/m68k-amigaos/clib/extra/ns-lib/libxml2.a(xmlIO.o) (_fileno)
/opt/netsurf/m68k-unknown-amigaos/cross/lib/gcc/m68k-unknown-amigaos/3.4.6/../../../../m68k-unknown-amigaos/lib/libc.a(unistd_dup.o)
                              /mnt/e/usr/local/amiga/m68k-amigaos/clib/extra/ns-lib/libxml2.a(xmlIO.o) (_dup)
/opt/netsurf/m68k-unknown-amigaos/cross/lib/gcc/m68k-unknown-amigaos/3.4.6/../../../../m68k-unknown-amigaos/lib/libc.a(stdio_puts.o)
                              /mnt/e/usr/local/amiga/m68k-amigaos/clib/extra/ns-lib/libxml2.a(xmlregexp.o) (_puts)
/opt/netsurf/m68k-unknown-amigaos/cross/lib/gcc/m68k-unknown-amigaos/3.4.6/../../../../m68k-unknown-amigaos/lib/libc.a(stdlib_rand_r.o)
                              /mnt/e/usr/local/amiga/m68k-amigaos/clib/extra/ns-lib/libxml2.a(dict.o) (_rand_r)
/opt/netsurf/m68k-unknown-amigaos/cross/lib/gcc/m68k-unknown-amigaos/3.4.6/../../../../m68k-unknown-amigaos/lib/libc.a(ctype_isblank.o)
                              /opt/netsurf/m68k-unknown-amigaos/env/lib/libtre.a(tre-parse.o) (_isblank)
/opt/netsurf/m68k-unknown-amigaos/cross/lib/gcc/m68k-unknown-amigaos/3.4.6/../../../../m68k-unknown-amigaos/lib/libc.a(time_gmtime_r.o)
                              /opt/netsurf/m68k-unknown-amigaos/env/lib/libcurl.a(libcurl_la-parsedate.o) (_gmtime_r)
/opt/netsurf/m68k-unknown-amigaos/cross/lib/gcc/m68k-unknown-amigaos/3.4.6/../../../../m68k-unknown-amigaos/lib/libc.a(stdio_fseeko.o)
                              /opt/netsurf/m68k-unknown-amigaos/env/lib/libcurl.a(libcurl_la-formdata.o) (_fseeko)
/opt/netsurf/m68k-unknown-amigaos/cross/lib/gcc/m68k-unknown-amigaos/3.4.6/../../../../m68k-unknown-amigaos/lib/libc.a(string_strerror_r.o)
                              /opt/netsurf/m68k-unknown-amigaos/env/lib/libcurl.a(libcurl_la-strerror.o) (_strerror_r)
/opt/netsurf/m68k-unknown-amigaos/cross/lib/gcc/m68k-unknown-amigaos/3.4.6/../../../../m68k-unknown-amigaos/lib/libc.a(string_strtok_r.o)
                              /opt/netsurf/m68k-unknown-amigaos/env/lib/libcurl.a(libcurl_la-curl_trc.o) (_strtok_r)
/opt/netsurf/m68k-unknown-amigaos/cross/lib/gcc/m68k-unknown-amigaos/3.4.6/../../../../m68k-unknown-amigaos/lib/libc.a(stdio_fseek.o)
                              /opt/netsurf/m68k-unknown-amigaos/env/lib/libcurl.a(libcurl_la-vtls.o) (_fseek)
/opt/netsurf/m68k-unknown-amigaos/cross/lib/gcc/m68k-unknown-amigaos/3.4.6/../../../../m68k-unknown-amigaos/lib/libc.a(stdio_ftell.o)
                              /opt/netsurf/m68k-unknown-amigaos/env/lib/libcurl.a(libcurl_la-vtls.o) (_ftell)
/opt/netsurf/m68k-unknown-amigaos/cross/lib/gcc/m68k-unknown-amigaos/3.4.6/../../../../m68k-unknown-amigaos/lib/libc.a(stdlib_strtoul.o)
                              /opt/netsurf/m68k-unknown-amigaos/env/lib/libcurl.a(libcurl_la-url.o) (_strtoul)
/opt/netsurf/m68k-unknown-amigaos/cross/lib/gcc/m68k-unknown-amigaos/3.4.6/../../../../m68k-unknown-amigaos/lib/libc.a(stdio_feof.o)
                              /opt/netsurf/m68k-unknown-amigaos/env/lib/libcurl.a(libcurl_la-mime.o) (_feof)
/opt/netsurf/m68k-unknown-amigaos/cross/lib/gcc/m68k-unknown-amigaos/3.4.6/../../../../m68k-unknown-amigaos/lib/libc.a(libgen_basename.o)
                              /opt/netsurf/m68k-unknown-amigaos/env/lib/libcurl.a(libcurl_la-mime.o) (_basename)
/opt/netsurf/m68k-unknown-amigaos/cross/lib/gcc/m68k-unknown-amigaos/3.4.6/../../../../m68k-unknown-amigaos/lib/libc.a(signal_signal.o)
                              /opt/netsurf/m68k-unknown-amigaos/env/lib/libcurl.a(libcurl_la-transfer.o) (_signal)
/opt/netsurf/m68k-unknown-amigaos/cross/lib/gcc/m68k-unknown-amigaos/3.4.6/../../../../m68k-unknown-amigaos/lib/libc.a(unistd_getpid.o)
                              /opt/netsurf/m68k-unknown-amigaos/env/lib/libcurl.a(libcurl_la-smb.o) (_getpid)
/opt/netsurf/m68k-unknown-amigaos/cross/lib/gcc/m68k-unknown-amigaos/3.4.6/../../../../m68k-unknown-amigaos/lib/libc.a(unistd_fdopen.o)
                              /opt/netsurf/m68k-unknown-amigaos/env/lib/libcurl.a(libcurl_la-fopen.o) (_fdopen)
/opt/netsurf/m68k-unknown-amigaos/cross/lib/gcc/m68k-unknown-amigaos/3.4.6/../../../../m68k-unknown-amigaos/lib/libc.a(stdio_setvbuf.o)
                              /opt/netsurf/m68k-unknown-amigaos/env/lib/libcurl.a(libcurl_la-keylog.o) (_setvbuf)
/opt/netsurf/m68k-unknown-amigaos/cross/lib/gcc/m68k-unknown-amigaos/3.4.6/../../../../m68k-unknown-amigaos/lib/libc.a(stdlib_constructor_begin.o)
                              /opt/netsurf/m68k-unknown-amigaos/cross/lib/gcc/m68k-unknown-amigaos/3.4.6/../../../../m68k-unknown-amigaos/lib/libunix.a(stdlib_main.o) (__init)
/opt/netsurf/m68k-unknown-amigaos/cross/lib/gcc/m68k-unknown-amigaos/3.4.6/../../../../m68k-unknown-amigaos/lib/libc.a(signal_data.o)
                              /opt/netsurf/m68k-unknown-amigaos/cross/lib/gcc/m68k-unknown-amigaos/3.4.6/../../../../m68k-unknown-amigaos/lib/libunix.a(stdlib_main.o) (___check_abort_enabled)
/opt/netsurf/m68k-unknown-amigaos/cross/lib/gcc/m68k-unknown-amigaos/3.4.6/../../../../m68k-unknown-amigaos/lib/libc.a(stdlib_showerror.o)
                              /opt/netsurf/m68k-unknown-amigaos/cross/lib/gcc/m68k-unknown-amigaos/3.4.6/../../../../m68k-unknown-amigaos/lib/libunix.a(stdlib_main.o) (___show_error)
/opt/netsurf/m68k-unknown-amigaos/cross/lib/gcc/m68k-unknown-amigaos/3.4.6/../../../../m68k-unknown-amigaos/lib/libc.a(stdlib_oslibversion.o)
                              /opt/netsurf/m68k-unknown-amigaos/cross/lib/gcc/m68k-unknown-amigaos/3.4.6/../../../../m68k-unknown-amigaos/lib/libunix.a(stdlib_main.o) (___minimum_os_lib_version)
/opt/netsurf/m68k-unknown-amigaos/cross/lib/gcc/m68k-unknown-amigaos/3.4.6/../../../../m68k-unknown-amigaos/lib/libc.a(stdlib_utilitybase.o)
                              /opt/netsurf/m68k-unknown-amigaos/cross/lib/gcc/m68k-unknown-amigaos/3.4.6/../../../../m68k-unknown-amigaos/lib/libunix.a(stdlib_main.o) (___UtilityBase)
/opt/netsurf/m68k-unknown-amigaos/cross/lib/gcc/m68k-unknown-amigaos/3.4.6/../../../../m68k-unknown-amigaos/lib/libc.a(stdlib_osliberror.o)
                              /opt/netsurf/m68k-unknown-amigaos/cross/lib/gcc/m68k-unknown-amigaos/3.4.6/../../../../m68k-unknown-amigaos/lib/libunix.a(stdlib_main.o) (___minimum_os_lib_error)
/opt/netsurf/m68k-unknown-amigaos/cross/lib/gcc/m68k-unknown-amigaos/3.4.6/../../../../m68k-unknown-amigaos/lib/libc.a(stdlib_disablerequesters.o)
                              /opt/netsurf/m68k-unknown-amigaos/cross/lib/gcc/m68k-unknown-amigaos/3.4.6/../../../../m68k-unknown-amigaos/lib/libunix.a(stdlib_main.o) (___disable_dos_requesters)
/opt/netsurf/m68k-unknown-amigaos/cross/lib/gcc/m68k-unknown-amigaos/3.4.6/../../../../m68k-unknown-amigaos/lib/libc.a(stdlib_set_process_window.o)
                              /opt/netsurf/m68k-unknown-amigaos/cross/lib/gcc/m68k-unknown-amigaos/3.4.6/../../../../m68k-unknown-amigaos/lib/libunix.a(stdlib_main.o) (___set_process_window)
/opt/netsurf/m68k-unknown-amigaos/cross/lib/gcc/m68k-unknown-amigaos/3.4.6/../../../../m68k-unknown-amigaos/lib/libc.a(stdlib_getdefstacksize.o)
                              /opt/netsurf/m68k-unknown-amigaos/cross/lib/gcc/m68k-unknown-amigaos/3.4.6/../../../../m68k-unknown-amigaos/lib/libunix.a(stdlib_main.o) (___get_default_stack_size)
/opt/netsurf/m68k-unknown-amigaos/cross/lib/gcc/m68k-unknown-amigaos/3.4.6/../../../../m68k-unknown-amigaos/lib/libc.a(stdlib_stacksize.o)
                              /opt/netsurf/m68k-unknown-amigaos/cross/lib/gcc/m68k-unknown-amigaos/3.4.6/../../../../m68k-unknown-amigaos/lib/libunix.a(stdlib_main.o) (___stack_size)
/opt/netsurf/m68k-unknown-amigaos/cross/lib/gcc/m68k-unknown-amigaos/3.4.6/../../../../m68k-unknown-amigaos/lib/libc.a(stdlib_isresident.o)
                              /opt/netsurf/m68k-unknown-amigaos/cross/lib/gcc/m68k-unknown-amigaos/3.4.6/../../../../m68k-unknown-amigaos/lib/libunix.a(stdlib_main.o) (___is_resident)
/opt/netsurf/m68k-unknown-amigaos/cross/lib/gcc/m68k-unknown-amigaos/3.4.6/../../../../m68k-unknown-amigaos/lib/libc.a(stdlib_detach.o)
                              /opt/netsurf/m68k-unknown-amigaos/cross/lib/gcc/m68k-unknown-amigaos/3.4.6/../../../../m68k-unknown-amigaos/lib/libunix.a(stdlib_main.o) (___detach)
/opt/netsurf/m68k-unknown-amigaos/cross/lib/gcc/m68k-unknown-amigaos/3.4.6/../../../../m68k-unknown-amigaos/lib/libc.a(stdlib_checkdetach.o)
                              /opt/netsurf/m68k-unknown-amigaos/cross/lib/gcc/m68k-unknown-amigaos/3.4.6/../../../../m68k-unknown-amigaos/lib/libunix.a(stdlib_main.o) (___check_detach)
/opt/netsurf/m68k-unknown-amigaos/cross/lib/gcc/m68k-unknown-amigaos/3.4.6/../../../../m68k-unknown-amigaos/lib/libc.a(stdlib_priority.o)
                              /opt/netsurf/m68k-unknown-amigaos/cross/lib/gcc/m68k-unknown-amigaos/3.4.6/../../../../m68k-unknown-amigaos/lib/libunix.a(stdlib_main.o) (___priority)
/opt/netsurf/m68k-unknown-amigaos/cross/lib/gcc/m68k-unknown-amigaos/3.4.6/../../../../m68k-unknown-amigaos/lib/libc.a(stdlib_swapstack.o)
                              /opt/netsurf/m68k-unknown-amigaos/cross/lib/gcc/m68k-unknown-amigaos/3.4.6/../../../../m68k-unknown-amigaos/lib/libunix.a(stdlib_main.o) (___swap_stack_and_call)
/opt/netsurf/m68k-unknown-amigaos/cross/lib/gcc/m68k-unknown-amigaos/3.4.6/../../../../m68k-unknown-amigaos/lib/libc.a(stdlib_process_name.o)
                              /opt/netsurf/m68k-unknown-amigaos/cross/lib/gcc/m68k-unknown-amigaos/3.4.6/../../../../m68k-unknown-amigaos/lib/libunix.a(stdlib_main.o) (___process_name)
/opt/netsurf/m68k-unknown-amigaos/cross/lib/gcc/m68k-unknown-amigaos/3.4.6/../../../../m68k-unknown-amigaos/lib/libc.a(stdio_nostdio.o)
                              /opt/netsurf/m68k-unknown-amigaos/cross/lib/gcc/m68k-unknown-amigaos/3.4.6/../../../../m68k-unknown-amigaos/lib/libunix.a(stdlib_main.o) (___no_standard_io)
/opt/netsurf/m68k-unknown-amigaos/cross/lib/gcc/m68k-unknown-amigaos/3.4.6/../../../../m68k-unknown-amigaos/lib/libc.a(stdlib_set_errno.o)
                              /opt/netsurf/m68k-unknown-amigaos/cross/lib/gcc/m68k-unknown-amigaos/3.4.6/../../../../m68k-unknown-amigaos/lib/libunix.a(stdlib_malloc.o) (___set_errno)
/opt/netsurf/m68k-unknown-amigaos/cross/lib/gcc/m68k-unknown-amigaos/3.4.6/../../../../m68k-unknown-amigaos/lib/libc.a(stdlib_threshold.o)
                              /opt/netsurf/m68k-unknown-amigaos/cross/lib/gcc/m68k-unknown-amigaos/3.4.6/../../../../m68k-unknown-amigaos/lib/libunix.a(stdlib_malloc.o) (___free_memory_threshold)
/opt/netsurf/m68k-unknown-amigaos/cross/lib/gcc/m68k-unknown-amigaos/3.4.6/../../../../m68k-unknown-amigaos/lib/libc.a(stdlib_slab.o)
                              /opt/netsurf/m68k-unknown-amigaos/cross/lib/gcc/m68k-unknown-amigaos/3.4.6/../../../../m68k-unknown-amigaos/lib/libunix.a(stdlib_malloc.o) (___slab_allocate)
/opt/netsurf/m68k-unknown-amigaos/cross/lib/gcc/m68k-unknown-amigaos/3.4.6/../../../../m68k-unknown-amigaos/lib/libc.a(stdlib_slab_max_size.o)
                              /opt/netsurf/m68k-unknown-amigaos/cross/lib/gcc/m68k-unknown-amigaos/3.4.6/../../../../m68k-unknown-amigaos/lib/libunix.a(stdlib_malloc.o) (___slab_max_size)
/opt/netsurf/m68k-unknown-amigaos/cross/lib/gcc/m68k-unknown-amigaos/3.4.6/../../../../m68k-unknown-amigaos/lib/libc.a(stdlib_default_pool_size.o)
                              /opt/netsurf/m68k-unknown-amigaos/cross/lib/gcc/m68k-unknown-amigaos/3.4.6/../../../../m68k-unknown-amigaos/lib/libunix.a(stdlib_malloc.o) (___default_pool_size)
/opt/netsurf/m68k-unknown-amigaos/cross/lib/gcc/m68k-unknown-amigaos/3.4.6/../../../../m68k-unknown-amigaos/lib/libc.a(stdlib_default_puddle_size.o)
                              /opt/netsurf/m68k-unknown-amigaos/cross/lib/gcc/m68k-unknown-amigaos/3.4.6/../../../../m68k-unknown-amigaos/lib/libunix.a(stdlib_malloc.o) (___default_puddle_size)
/opt/netsurf/m68k-unknown-amigaos/cross/lib/gcc/m68k-unknown-amigaos/3.4.6/../../../../m68k-unknown-amigaos/lib/libc.a(signal_checkabort.o)
                              /opt/netsurf/m68k-unknown-amigaos/cross/lib/gcc/m68k-unknown-amigaos/3.4.6/../../../../m68k-unknown-amigaos/lib/libunix.a(stat_stat.o) (___check_abort)
/opt/netsurf/m68k-unknown-amigaos/cross/lib/gcc/m68k-unknown-amigaos/3.4.6/../../../../m68k-unknown-amigaos/lib/libc.a(time_convert_datestamp.o)
                              /opt/netsurf/m68k-unknown-amigaos/cross/lib/gcc/m68k-unknown-amigaos/3.4.6/../../../../m68k-unknown-amigaos/lib/libunix.a(stat_stat.o) (___convert_datestamp_to_time)
/opt/netsurf/m68k-unknown-amigaos/cross/lib/gcc/m68k-unknown-amigaos/3.4.6/../../../../m68k-unknown-amigaos/lib/libc.a(stdio_translateioerror.o)
                              /opt/netsurf/m68k-unknown-amigaos/cross/lib/gcc/m68k-unknown-amigaos/3.4.6/../../../../m68k-unknown-amigaos/lib/libunix.a(stat_stat.o) (___translate_io_error_to_errno)
/opt/netsurf/m68k-unknown-amigaos/cross/lib/gcc/m68k-unknown-amigaos/3.4.6/../../../../m68k-unknown-amigaos/lib/libc.a(stat_convertfileinfo.o)
                              /opt/netsurf/m68k-unknown-amigaos/cross/lib/gcc/m68k-unknown-amigaos/3.4.6/../../../../m68k-unknown-amigaos/lib/libunix.a(stat_stat.o) (___convert_file_info_to_stat)
/opt/netsurf/m68k-unknown-amigaos/cross/lib/gcc/m68k-unknown-amigaos/3.4.6/../../../../m68k-unknown-amigaos/lib/libc.a(stdio_findvacantiobentry.o)
                              /opt/netsurf/m68k-unknown-amigaos/cross/lib/gcc/m68k-unknown-amigaos/3.4.6/../../../../m68k-unknown-amigaos/lib/libunix.a(stdio_fopen.o) (___find_vacant_iob_entry)
/opt/netsurf/m68k-unknown-amigaos/cross/lib/gcc/m68k-unknown-amigaos/3.4.6/../../../../m68k-unknown-amigaos/lib/libc.a(stdio_growiobtable.o)
                              /opt/netsurf/m68k-unknown-amigaos/cross/lib/gcc/m68k-unknown-amigaos/3.4.6/../../../../m68k-unknown-amigaos/lib/libunix.a(stdio_fopen.o) (___grow_iob_table)
/opt/netsurf/m68k-unknown-amigaos/cross/lib/gcc/m68k-unknown-amigaos/3.4.6/../../../../m68k-unknown-amigaos/lib/libc.a(stdio_growfdtable.o)
                              /opt/netsurf/m68k-unknown-amigaos/cross/lib/gcc/m68k-unknown-amigaos/3.4.6/../../../../m68k-unknown-amigaos/lib/libunix.a(stdio_init_exit.o) (___grow_fd_table)
/opt/netsurf/m68k-unknown-amigaos/cross/lib/gcc/m68k-unknown-amigaos/3.4.6/../../../../m68k-unknown-amigaos/lib/libc.a(stdio_flushiobwritebuffer.o)
                              /opt/netsurf/m68k-unknown-amigaos/cross/lib/gcc/m68k-unknown-amigaos/3.4.6/../../../../m68k-unknown-amigaos/lib/libunix.a(stdio_fflush.o) (___flush_iob_write_buffer)
/opt/netsurf/m68k-unknown-amigaos/cross/lib/gcc/m68k-unknown-amigaos/3.4.6/../../../../m68k-unknown-amigaos/lib/libc.a(stdio_findvacantfdentry.o)
                              /opt/netsurf/m68k-unknown-amigaos/cross/lib/gcc/m68k-unknown-amigaos/3.4.6/../../../../m68k-unknown-amigaos/lib/libunix.a(fcntl_open.o) (___find_vacant_fd_entry)
/opt/netsurf/m68k-unknown-amigaos/cross/lib/gcc/m68k-unknown-amigaos/3.4.6/../../../../m68k-unknown-amigaos/lib/libc.a(stdio_initializefd.o)
                              /opt/netsurf/m68k-unknown-amigaos/cross/lib/gcc/m68k-unknown-amigaos/3.4.6/../../../../m68k-unknown-amigaos/lib/libunix.a(fcntl_open.o) (___initialize_fd)
/opt/netsurf/m68k-unknown-amigaos/cross/lib/gcc/m68k-unknown-amigaos/3.4.6/../../../../m68k-unknown-amigaos/lib/libc.a(unistd_currentpathname.o)
                              /opt/netsurf/m68k-unknown-amigaos/cross/lib/gcc/m68k-unknown-amigaos/3.4.6/../../../../m68k-unknown-amigaos/lib/libunix.a(unistd_getcwd.o) (___current_path_name)
/opt/netsurf/m68k-unknown-amigaos/cross/lib/gcc/m68k-unknown-amigaos/3.4.6/../../../../m68k-unknown-amigaos/lib/libc.a(stdio_get_file_descriptor.o)
                              /opt/netsurf/m68k-unknown-amigaos/cross/lib/gcc/m68k-unknown-amigaos/3.4.6/../../../../m68k-unknown-amigaos/lib/libunix.a(fcntl_fcntl.o) (___get_file_descriptor)
/opt/netsurf/m68k-unknown-amigaos/cross/lib/gcc/m68k-unknown-amigaos/3.4.6/../../../../m68k-unknown-amigaos/lib/libc.a(stdio_duplicate_fd.o)
                              /opt/netsurf/m68k-unknown-amigaos/cross/lib/gcc/m68k-unknown-amigaos/3.4.6/../../../../m68k-unknown-amigaos/lib/libunix.a(fcntl_fcntl.o) (___duplicate_fd)
/opt/netsurf/m68k-unknown-amigaos/cross/lib/gcc/m68k-unknown-amigaos/3.4.6/../../../../m68k-unknown-amigaos/lib/libc.a(unistd_unlink_retries.o)
                              /opt/netsurf/m68k-unknown-amigaos/cross/lib/gcc/m68k-unknown-amigaos/3.4.6/../../../../m68k-unknown-amigaos/lib/libunix.a(unistd_unlink.o) (___unlink_retries)
/opt/netsurf/m68k-unknown-amigaos/cross/lib/gcc/m68k-unknown-amigaos/3.4.6/../../../../m68k-unknown-amigaos/lib/libc.a(unistd_init_exit.o)
                              /opt/netsurf/m68k-unknown-amigaos/cross/lib/gcc/m68k-unknown-amigaos/3.4.6/../../../../m68k-unknown-amigaos/lib/libunix.a(unistd_unlink.o) (___unlink_list)
/opt/netsurf/m68k-unknown-amigaos/cross/lib/gcc/m68k-unknown-amigaos/3.4.6/../../../../m68k-unknown-amigaos/lib/libc.a(stdlib_shell_escape.o)
                              /opt/netsurf/m68k-unknown-amigaos/cross/lib/gcc/m68k-unknown-amigaos/3.4.6/../../../../m68k-unknown-amigaos/lib/libunix.a(stdlib_arg.o) (___shell_escape_character)
/opt/netsurf/m68k-unknown-amigaos/cross/lib/gcc/m68k-unknown-amigaos/3.4.6/../../../../m68k-unknown-amigaos/lib/libc.a(stdlib_program_name.o)
                              /opt/netsurf/m68k-unknown-amigaos/cross/lib/gcc/m68k-unknown-amigaos/3.4.6/../../../../m68k-unknown-amigaos/lib/libunix.a(stdlib_arg.o) (___program_name)
/opt/netsurf/m68k-unknown-amigaos/cross/lib/gcc/m68k-unknown-amigaos/3.4.6/../../../../m68k-unknown-amigaos/lib/libc.a(stdlib_stdio_window_spec.o)
                              /opt/netsurf/m68k-unknown-amigaos/cross/lib/gcc/m68k-unknown-amigaos/3.4.6/../../../../m68k-unknown-amigaos/lib/libunix.a(stdio_file_init.o) (___stdio_window_specification)
/opt/netsurf/m68k-unknown-amigaos/cross/lib/gcc/m68k-unknown-amigaos/3.4.6/../../../../m68k-unknown-amigaos/lib/libc.a(stdio_iobhookentry.o)
                              /opt/netsurf/m68k-unknown-amigaos/cross/lib/gcc/m68k-unknown-amigaos/3.4.6/../../../../m68k-unknown-amigaos/lib/libunix.a(stdio_file_init.o) (___iob_hook_entry)
/opt/netsurf/m68k-unknown-amigaos/cross/lib/gcc/m68k-unknown-amigaos/3.4.6/../../../../m68k-unknown-amigaos/lib/libc.a(stdio_initializeiob.o)
                              /opt/netsurf/m68k-unknown-amigaos/cross/lib/gcc/m68k-unknown-amigaos/3.4.6/../../../../m68k-unknown-amigaos/lib/libunix.a(stdio_file_init.o) (___initialize_iob)
/opt/netsurf/m68k-unknown-amigaos/cross/lib/gcc/m68k-unknown-amigaos/3.4.6/../../../../m68k-unknown-amigaos/lib/libc.a(stdio_remove_fd_alias.o)
                              /opt/netsurf/m68k-unknown-amigaos/cross/lib/gcc/m68k-unknown-amigaos/3.4.6/../../../../m68k-unknown-amigaos/lib/libunix.a(stdio_fdhookentry.o) (___remove_fd_alias)
/opt/netsurf/m68k-unknown-amigaos/cross/lib/gcc/m68k-unknown-amigaos/3.4.6/../../../../m68k-unknown-amigaos/lib/libc.a(stdio_parent_of_fh.o)
                              /opt/netsurf/m68k-unknown-amigaos/cross/lib/gcc/m68k-unknown-amigaos/3.4.6/../../../../m68k-unknown-amigaos/lib/libunix.a(stdio_fdhookentry.o) (___safe_parent_of_file_handle)
/opt/netsurf/m68k-unknown-amigaos/cross/lib/gcc/m68k-unknown-amigaos/3.4.6/../../../../m68k-unknown-amigaos/lib/libc.a(stdio_examine_fh.o)
                              /opt/netsurf/m68k-unknown-amigaos/cross/lib/gcc/m68k-unknown-amigaos/3.4.6/../../../../m68k-unknown-amigaos/lib/libunix.a(stdio_fdhookentry.o) (___safe_examine_file_handle)
/opt/netsurf/m68k-unknown-amigaos/cross/lib/gcc/m68k-unknown-amigaos/3.4.6/../../../../m68k-unknown-amigaos/lib/libc.a(stdio_grow_file.o)
                              /opt/netsurf/m68k-unknown-amigaos/cross/lib/gcc/m68k-unknown-amigaos/3.4.6/../../../../m68k-unknown-amigaos/lib/libunix.a(stdio_fdhookentry.o) (___grow_file_size)
/opt/netsurf/m68k-unknown-amigaos/cross/lib/gcc/m68k-unknown-amigaos/3.4.6/../../../../m68k-unknown-amigaos/lib/libc.a(signal_mask.o)
                              /opt/netsurf/m68k-unknown-amigaos/cross/lib/gcc/m68k-unknown-amigaos/3.4.6/../../../../m68k-unknown-amigaos/lib/libunix.a(stdio_record_locking.o) (___break_signal_mask)
/opt/netsurf/m68k-unknown-amigaos/cross/lib/gcc/m68k-unknown-amigaos/3.4.6/../../../../m68k-unknown-amigaos/lib/libc.a(stdio_perror.o)
                              /opt/netsurf/m68k-unknown-amigaos/cross/lib/gcc/m68k-unknown-amigaos/3.4.6/../../../../m68k-unknown-amigaos/lib/libunix.a(unistd_wildcard_expand.o) (_perror)
/opt/netsurf/m68k-unknown-amigaos/cross/lib/gcc/m68k-unknown-amigaos/3.4.6/../../../../m68k-unknown-amigaos/lib/libc.a(stdio_vsprintf_hook_entry.o)
                              /opt/netsurf/m68k-unknown-amigaos/cross/lib/gcc/m68k-unknown-amigaos/3.4.6/../../../../m68k-unknown-amigaos/lib/libm.a(stdio_vsprintf.o) (___vsprintf_hook_entry)
/opt/netsurf/m68k-unknown-amigaos/cross/lib/gcc/m68k-unknown-amigaos/3.4.6/../../../../m68k-unknown-amigaos/lib/libc.a(stdio_vsnprintf_hook_entry.o)
                              /opt/netsurf/m68k-unknown-amigaos/cross/lib/gcc/m68k-unknown-amigaos/3.4.6/../../../../m68k-unknown-amigaos/lib/libm.a(stdio_vsnprintf.o) (___vsnprintf_hook_entry)
/opt/netsurf/m68k-unknown-amigaos/cross/lib/gcc/m68k-unknown-amigaos/3.4.6/../../../../m68k-unknown-amigaos/lib/libc.a(locale_init_exit.o)
                              /opt/netsurf/m68k-unknown-amigaos/cross/lib/gcc/m68k-unknown-amigaos/3.4.6/../../../../m68k-unknown-amigaos/lib/libc.a(locale_setlocale.o) (___close_all_locales)
/opt/netsurf/m68k-unknown-amigaos/cross/lib/gcc/m68k-unknown-amigaos/3.4.6/../../../../m68k-unknown-amigaos/lib/libc.a(string_strlcpy.o)
                              /opt/netsurf/m68k-unknown-amigaos/cross/lib/gcc/m68k-unknown-amigaos/3.4.6/../../../../m68k-unknown-amigaos/lib/libm.a(math_init_exit.o) (_strlcpy)
/opt/netsurf/m68k-unknown-amigaos/cross/lib/gcc/m68k-unknown-amigaos/3.4.6/../../../../m68k-unknown-amigaos/lib/libc.a(string_strlcat.o)
                              /opt/netsurf/m68k-unknown-amigaos/cross/lib/gcc/m68k-unknown-amigaos/3.4.6/../../../../m68k-unknown-amigaos/lib/libm.a(math_init_exit.o) (_strlcat)
/opt/netsurf/m68k-unknown-amigaos/cross/lib/gcc/m68k-unknown-amigaos/3.4.6/../../../../m68k-unknown-amigaos/lib/libc.a(stdio_sscanf_hook_entry.o)
                              /opt/netsurf/m68k-unknown-amigaos/cross/lib/gcc/m68k-unknown-amigaos/3.4.6/../../../../m68k-unknown-amigaos/lib/libm.a(stdio_vsscanf.o) (___sscanf_hook_entry)
/opt/netsurf/m68k-unknown-amigaos/cross/lib/gcc/m68k-unknown-amigaos/3.4.6/../../../../m68k-unknown-amigaos/lib/libc.a(stdio_fgetc.o)
                              /opt/netsurf/m68k-unknown-amigaos/cross/lib/gcc/m68k-unknown-amigaos/3.4.6/../../../../m68k-unknown-amigaos/lib/libm.a(stdio_vfscanf.o) (___fgetc)
/opt/netsurf/m68k-unknown-amigaos/cross/lib/gcc/m68k-unknown-amigaos/3.4.6/../../../../m68k-unknown-amigaos/lib/libc.a(stdio_clearerr.o)
                              /opt/netsurf/m68k-unknown-amigaos/cross/lib/gcc/m68k-unknown-amigaos/3.4.6/../../../../m68k-unknown-amigaos/lib/libm.a(stdio_vfscanf.o) (_clearerr)
/opt/netsurf/m68k-unknown-amigaos/cross/lib/gcc/m68k-unknown-amigaos/3.4.6/../../../../m68k-unknown-amigaos/lib/libc.a(stdio_ungetc.o)
                              /opt/netsurf/m68k-unknown-amigaos/cross/lib/gcc/m68k-unknown-amigaos/3.4.6/../../../../m68k-unknown-amigaos/lib/libm.a(stdio_vfscanf.o) (_ungetc)
/opt/netsurf/m68k-unknown-amigaos/cross/lib/gcc/m68k-unknown-amigaos/3.4.6/../../../../m68k-unknown-amigaos/lib/libc.a(stdio_dropiobreadbuffer.o)
                              /opt/netsurf/m68k-unknown-amigaos/cross/lib/gcc/m68k-unknown-amigaos/3.4.6/../../../../m68k-unknown-amigaos/lib/libc.a(stdio_fputc.o) (___drop_iob_read_buffer)
/opt/netsurf/m68k-unknown-amigaos/cross/lib/gcc/m68k-unknown-amigaos/3.4.6/../../../../m68k-unknown-amigaos/lib/libc.a(time_localtime_r.o)
                              /opt/netsurf/m68k-unknown-amigaos/cross/lib/gcc/m68k-unknown-amigaos/3.4.6/../../../../m68k-unknown-amigaos/lib/libc.a(time_localtime.o) (_localtime_r)
/opt/netsurf/m68k-unknown-amigaos/cross/lib/gcc/m68k-unknown-amigaos/3.4.6/../../../../m68k-unknown-amigaos/lib/libc.a(time_asctime.o)
                              /opt/netsurf/m68k-unknown-amigaos/cross/lib/gcc/m68k-unknown-amigaos/3.4.6/../../../../m68k-unknown-amigaos/lib/libc.a(time_ctime.o) (_asctime)
/opt/netsurf/m68k-unknown-amigaos/cross/lib/gcc/m68k-unknown-amigaos/3.4.6/../../../../m68k-unknown-amigaos/lib/libc.a(time_data.o)
                              /opt/netsurf/m68k-unknown-amigaos/cross/lib/gcc/m68k-unknown-amigaos/3.4.6/../../../../m68k-unknown-amigaos/lib/libc.a(time_strftime.o) (___abbreviated_week_day_names)
/opt/netsurf/m68k-unknown-amigaos/cross/lib/gcc/m68k-unknown-amigaos/3.4.6/../../../../m68k-unknown-amigaos/lib/libc.a(time_numbertostring.o)
                              /opt/netsurf/m68k-unknown-amigaos/cross/lib/gcc/m68k-unknown-amigaos/3.4.6/../../../../m68k-unknown-amigaos/lib/libc.a(time_strftime.o) (___number_to_string)
/opt/netsurf/m68k-unknown-amigaos/cross/lib/gcc/m68k-unknown-amigaos/3.4.6/../../../../m68k-unknown-amigaos/lib/libc.a(time_days_per_date.o)
                              /opt/netsurf/m68k-unknown-amigaos/cross/lib/gcc/m68k-unknown-amigaos/3.4.6/../../../../m68k-unknown-amigaos/lib/libc.a(time_strftime.o) (___calculate_days_per_date)
/opt/netsurf/m68k-unknown-amigaos/cross/lib/gcc/m68k-unknown-amigaos/3.4.6/../../../../m68k-unknown-amigaos/lib/libc.a(time_convert_time.o)
                              /opt/netsurf/m68k-unknown-amigaos/cross/lib/gcc/m68k-unknown-amigaos/3.4.6/../../../../m68k-unknown-amigaos/lib/libc.a(time_strftime.o) (___convert_time_to_datestamp)
/opt/netsurf/m68k-unknown-amigaos/cross/lib/gcc/m68k-unknown-amigaos/3.4.6/../../../../m68k-unknown-amigaos/lib/libc.a(time_weekday.o)
                              /opt/netsurf/m68k-unknown-amigaos/cross/lib/gcc/m68k-unknown-amigaos/3.4.6/../../../../m68k-unknown-amigaos/lib/libc.a(time_strftime.o) (___calculate_weekday)
/opt/netsurf/m68k-unknown-amigaos/cross/lib/gcc/m68k-unknown-amigaos/3.4.6/../../../../m68k-unknown-amigaos/lib/libc.a(signal_raise.o)
                              /opt/netsurf/m68k-unknown-amigaos/cross/lib/gcc/m68k-unknown-amigaos/3.4.6/../../../../m68k-unknown-amigaos/lib/libc.a(signal_signal.o) (___signal_handler_table)
/opt/netsurf/m68k-unknown-amigaos/cross/lib/gcc/m68k-unknown-amigaos/3.4.6/../../../../m68k-unknown-amigaos/lib/libc.a(stdlib_termination_message.o)
                              /opt/netsurf/m68k-unknown-amigaos/cross/lib/gcc/m68k-unknown-amigaos/3.4.6/../../../../m68k-unknown-amigaos/lib/libc.a(stdlib_abort.o) (___print_termination_message)
/opt/netsurf/m68k-unknown-amigaos/cross/lib/gcc/m68k-unknown-amigaos/3.4.6/../../../../m68k-unknown-amigaos/lib/libc.a(unistd_timer.o)
                              /opt/netsurf/m68k-unknown-amigaos/cross/lib/gcc/m68k-unknown-amigaos/3.4.6/../../../../m68k-unknown-amigaos/lib/libc.a(time_gettimeofday.o) (___TimerBase)
/opt/netsurf/m68k-unknown-amigaos/cross/lib/gcc/m68k-unknown-amigaos/3.4.6/../../../../m68k-unknown-amigaos/lib/libc.a(stdlib_udivsi4.o)
                              /opt/netsurf/m68k-unknown-amigaos/cross/lib/gcc/m68k-unknown-amigaos/3.4.6/../../../../m68k-unknown-amigaos/lib/libc.a(stdlib_divsi3.o) (___udivsi4)
/opt/netsurf/m68k-unknown-amigaos/cross/lib/gcc/m68k-unknown-amigaos/3.4.6/../../../../m68k-unknown-amigaos/lib/libc.a(stdlib_divsi4.o)
                              /opt/netsurf/m68k-unknown-amigaos/cross/lib/gcc/m68k-unknown-amigaos/3.4.6/../../../../m68k-unknown-amigaos/lib/libc.a(stdlib_divsi3.o) (___divsi4)
/opt/netsurf/m68k-unknown-amigaos/cross/lib/gcc/m68k-unknown-amigaos/3.4.6/../../../../m68k-unknown-amigaos/lib/libc.a(unistd_dup2.o)
                              /opt/netsurf/m68k-unknown-amigaos/cross/lib/gcc/m68k-unknown-amigaos/3.4.6/../../../../m68k-unknown-amigaos/lib/libc.a(unistd_dup.o) (_dup2)
/opt/netsurf/m68k-unknown-amigaos/cross/lib/gcc/m68k-unknown-amigaos/3.4.6/../../../../m68k-unknown-amigaos/lib/libc.a(time_converttime.o)
                              /opt/netsurf/m68k-unknown-amigaos/cross/lib/gcc/m68k-unknown-amigaos/3.4.6/../../../../m68k-unknown-amigaos/lib/libc.a(time_gmtime_r.o) (___convert_time)
/opt/netsurf/m68k-unknown-amigaos/cross/lib/gcc/m68k-unknown-amigaos/3.4.6/../../../../m68k-unknown-amigaos/lib/libc.a(stdlib_get_errno.o)
                              /opt/netsurf/m68k-unknown-amigaos/cross/lib/gcc/m68k-unknown-amigaos/3.4.6/../../../../m68k-unknown-amigaos/lib/libc.a(stdio_fseek.o) (___get_errno)
/opt/netsurf/m68k-unknown-amigaos/cross/lib/gcc/m68k-unknown-amigaos/3.4.6/../../../../m68k-unknown-amigaos/lib/libc.a(stdlib_slab_purge_threshold.o)
                              /opt/netsurf/m68k-unknown-amigaos/cross/lib/gcc/m68k-unknown-amigaos/3.4.6/../../../../m68k-unknown-amigaos/lib/libc.a(stdlib_slab.o) (___slab_purge_threshold)
/opt/netsurf/m68k-unknown-amigaos/cross/lib/gcc/m68k-unknown-amigaos/3.4.6/../../../../m68k-unknown-amigaos/lib/libc.a(locale_open_locale.o)
                              /opt/netsurf/m68k-unknown-amigaos/cross/lib/gcc/m68k-unknown-amigaos/3.4.6/../../../../m68k-unknown-amigaos/lib/libc.a(locale_init_exit.o) (___open_locale)
/opt/netsurf/m68k-unknown-amigaos/cross/lib/gcc/m68k-unknown-amigaos/3.4.6/../../../../m68k-unknown-amigaos/lib/libc.a(stdio_filliobreadbuffer.o)
                              /opt/netsurf/m68k-unknown-amigaos/cross/lib/gcc/m68k-unknown-amigaos/3.4.6/../../../../m68k-unknown-amigaos/lib/libc.a(stdio_fgetc.o) (___fill_iob_read_buffer)
/opt/netsurf/m68k-unknown-amigaos/cross/lib/gcc/m68k-unknown-amigaos/3.4.6/../../../../m68k-unknown-amigaos/lib/libc.a(time_asctime_r.o)
                              /opt/netsurf/m68k-unknown-amigaos/cross/lib/gcc/m68k-unknown-amigaos/3.4.6/../../../../m68k-unknown-amigaos/lib/libc.a(time_asctime.o) (___asctime_r)
/opt/netsurf/m68k-unknown-amigaos/cross/lib/gcc/m68k-unknown-amigaos/3.4.6/../../../../m68k-unknown-amigaos/lib/libnet.a(socket_send.o)
                              /mnt/e/usr/local/amiga/m68k-amigaos/clib/extra/ns-lib/libxml2.a(nanohttp.o) (_send)
/opt/netsurf/m68k-unknown-amigaos/cross/lib/gcc/m68k-unknown-amigaos/3.4.6/../../../../m68k-unknown-amigaos/lib/libnet.a(socket_select.o)
                              /mnt/e/usr/local/amiga/m68k-amigaos/clib/extra/ns-lib/libxml2.a(nanohttp.o) (_select)
/opt/netsurf/m68k-unknown-amigaos/cross/lib/gcc/m68k-unknown-amigaos/3.4.6/../../../../m68k-unknown-amigaos/lib/libnet.a(socket_recv.o)
                              /mnt/e/usr/local/amiga/m68k-amigaos/clib/extra/ns-lib/libxml2.a(nanohttp.o) (_recv)
/opt/netsurf/m68k-unknown-amigaos/cross/lib/gcc/m68k-unknown-amigaos/3.4.6/../../../../m68k-unknown-amigaos/lib/libnet.a(socket_gethostbyname.o)
                              /mnt/e/usr/local/amiga/m68k-amigaos/clib/extra/ns-lib/libxml2.a(nanohttp.o) (_gethostbyname)
/opt/netsurf/m68k-unknown-amigaos/cross/lib/gcc/m68k-unknown-amigaos/3.4.6/../../../../m68k-unknown-amigaos/lib/libnet.a(socket_socket.o)
                              /mnt/e/usr/local/amiga/m68k-amigaos/clib/extra/ns-lib/libxml2.a(nanohttp.o) (_socket)
/opt/netsurf/m68k-unknown-amigaos/cross/lib/gcc/m68k-unknown-amigaos/3.4.6/../../../../m68k-unknown-amigaos/lib/libnet.a(socket_connect.o)
                              /mnt/e/usr/local/amiga/m68k-amigaos/clib/extra/ns-lib/libxml2.a(nanohttp.o) (_connect)
/opt/netsurf/m68k-unknown-amigaos/cross/lib/gcc/m68k-unknown-amigaos/3.4.6/../../../../m68k-unknown-amigaos/lib/libnet.a(socket_getsockopt.o)
                              /mnt/e/usr/local/amiga/m68k-amigaos/clib/extra/ns-lib/libxml2.a(nanohttp.o) (_getsockopt)
/opt/netsurf/m68k-unknown-amigaos/cross/lib/gcc/m68k-unknown-amigaos/3.4.6/../../../../m68k-unknown-amigaos/lib/libnet.a(socket_getsockname.o)
                              /mnt/e/usr/local/amiga/m68k-amigaos/clib/extra/ns-lib/libxml2.a(nanoftp.o) (_getsockname)
/opt/netsurf/m68k-unknown-amigaos/cross/lib/gcc/m68k-unknown-amigaos/3.4.6/../../../../m68k-unknown-amigaos/lib/libnet.a(socket_bind.o)
                              /mnt/e/usr/local/amiga/m68k-amigaos/clib/extra/ns-lib/libxml2.a(nanoftp.o) (_bind)
/opt/netsurf/m68k-unknown-amigaos/cross/lib/gcc/m68k-unknown-amigaos/3.4.6/../../../../m68k-unknown-amigaos/lib/libnet.a(socket_listen.o)
                              /mnt/e/usr/local/amiga/m68k-amigaos/clib/extra/ns-lib/libxml2.a(nanoftp.o) (_listen)
/opt/netsurf/m68k-unknown-amigaos/cross/lib/gcc/m68k-unknown-amigaos/3.4.6/../../../../m68k-unknown-amigaos/lib/libnet.a(socket_get_descriptor.o)
                              /opt/netsurf/m68k-unknown-amigaos/cross/lib/gcc/m68k-unknown-amigaos/3.4.6/../../../../m68k-unknown-amigaos/lib/libnet.a(socket_send.o) (___get_file_descriptor_socket)
/opt/netsurf/m68k-unknown-amigaos/cross/lib/gcc/m68k-unknown-amigaos/3.4.6/../../../../m68k-unknown-amigaos/lib/libnet.a(socket_init_exit.o)
                              /opt/netsurf/m68k-unknown-amigaos/cross/lib/gcc/m68k-unknown-amigaos/3.4.6/../../../../m68k-unknown-amigaos/lib/libnet.a(socket_send.o) (___SocketBase)
/opt/netsurf/m68k-unknown-amigaos/cross/lib/gcc/m68k-unknown-amigaos/3.4.6/../../../../m68k-unknown-amigaos/lib/libnet.a(socket_select_signal.o)
                              /opt/netsurf/m68k-unknown-amigaos/cross/lib/gcc/m68k-unknown-amigaos/3.4.6/../../../../m68k-unknown-amigaos/lib/libnet.a(socket_select.o) (___select)
/opt/netsurf/m68k-unknown-amigaos/cross/lib/gcc/m68k-unknown-amigaos/3.4.6/../../../../m68k-unknown-amigaos/lib/libnet.a(socket_hook_entry.o)
                              /opt/netsurf/m68k-unknown-amigaos/cross/lib/gcc/m68k-unknown-amigaos/3.4.6/../../../../m68k-unknown-amigaos/lib/libnet.a(socket_socket.o) (___socket_hook_entry)
/opt/netsurf/m68k-unknown-amigaos/cross/lib/gcc/m68k-unknown-amigaos/3.4.6/../../../../m68k-unknown-amigaos/lib/libnet.a(socket_obtain_daemon.o)
                              /opt/netsurf/m68k-unknown-amigaos/cross/lib/gcc/m68k-unknown-amigaos/3.4.6/../../../../m68k-unknown-amigaos/lib/libnet.a(socket_init_exit.o) (___obtain_daemon_message)
/opt/netsurf/m68k-unknown-amigaos/cross/lib/gcc/m68k-unknown-amigaos/3.4.6/../../../../m68k-unknown-amigaos/lib/libnet.a(socket_check_daemon.o)
                              /opt/netsurf/m68k-unknown-amigaos/cross/lib/gcc/m68k-unknown-amigaos/3.4.6/../../../../m68k-unknown-amigaos/lib/libnet.a(socket_obtain_daemon.o) (___check_daemon_startup)
/opt/netsurf/m68k-unknown-amigaos/cross/lib/gcc/m68k-unknown-amigaos/3.4.6/../../../../m68k-unknown-amigaos/lib/libnet.a(socket_isdaemon.o)
                              /opt/netsurf/m68k-unknown-amigaos/cross/lib/gcc/m68k-unknown-amigaos/3.4.6/../../../../m68k-unknown-amigaos/lib/libnet.a(socket_obtain_daemon.o) (___is_daemon)
/opt/netsurf/m68k-unknown-amigaos/cross/lib/gcc/m68k-unknown-amigaos/3.4.6/libgcc.a(_floatdisf.o)
                              build-newer-morphos/mui_downloadwindowclass.o (___floatdisf)
/opt/netsurf/m68k-unknown-amigaos/cross/lib/gcc/m68k-unknown-amigaos/3.4.6/libgcc.a(_clzdi2.o)
                              /mnt/e/usr/local/amiga/m68k-amigaos/clib/extra/ns-lib/libxml2.a(xpath.o) (___clzdi2)
/opt/netsurf/m68k-unknown-amigaos/cross/lib/gcc/m68k-unknown-amigaos/3.4.6/libgcc.a(_lshrdi3.o)
                              /mnt/e/usr/local/amiga/m68k-amigaos/clib/extra/ns-lib/libxml2.a(xpath.o) (___lshrdi3)
/opt/netsurf/m68k-unknown-amigaos/cross/lib/gcc/m68k-unknown-amigaos/3.4.6/libgcc.a(_ashldi3.o)
                              /mnt/e/usr/local/amiga/m68k-amigaos/clib/extra/ns-lib/libxml2.a(xpath.o) (___ashldi3)
/opt/netsurf/m68k-unknown-amigaos/cross/lib/gcc/m68k-unknown-amigaos/3.4.6/libgcc.a(_divdi3.o)
                              /opt/netsurf/m68k-unknown-amigaos/env/lib/libcurl.a(libcurl_la-multi.o) (___divdi3)
/opt/netsurf/m68k-unknown-amigaos/cross/lib/gcc/m68k-unknown-amigaos/3.4.6/libgcc.a(_moddi3.o)
                              /opt/netsurf/m68k-unknown-amigaos/env/lib/libcurl.a(libcurl_la-multi.o) (___moddi3)
/opt/netsurf/m68k-unknown-amigaos/cross/lib/gcc/m68k-unknown-amigaos/3.4.6/libgcc.a(_floatdidf.o)
                              /opt/netsurf/m68k-unknown-amigaos/env/lib/libcurl.a(libcurl_la-getinfo.o) (___floatdidf)
/opt/netsurf/m68k-unknown-amigaos/cross/lib/gcc/m68k-unknown-amigaos/3.4.6/libgcc.a(_muldi3.o)
                              /opt/netsurf/m68k-unknown-amigaos/env/lib/libcurl.a(libcurl_la-progress.o) (___muldi3)
/opt/netsurf/m68k-unknown-amigaos/cross/lib/gcc/m68k-unknown-amigaos/3.4.6/libgcc.a(_fixdfdi.o)
                              /opt/netsurf/m68k-unknown-amigaos/env/lib/libcurl.a(libcurl_la-progress.o) (___fixdfdi)
/opt/netsurf/m68k-unknown-amigaos/cross/lib/gcc/m68k-unknown-amigaos/3.4.6/libgcc.a(_umoddi3.o)
                              /opt/netsurf/m68k-unknown-amigaos/env/lib/libcurl.a(libcurl_la-mprintf.o) (___umoddi3)
/opt/netsurf/m68k-unknown-amigaos/cross/lib/gcc/m68k-unknown-amigaos/3.4.6/libgcc.a(_udivdi3.o)
                              /opt/netsurf/m68k-unknown-amigaos/env/lib/libcurl.a(libcurl_la-mprintf.o) (___udivdi3)
/opt/netsurf/m68k-unknown-amigaos/cross/lib/gcc/m68k-unknown-amigaos/3.4.6/libgcc.a(_clz.o)
                              /opt/netsurf/m68k-unknown-amigaos/cross/lib/gcc/m68k-unknown-amigaos/3.4.6/libgcc.a(_clzdi2.o) (___clz_tab)
/opt/netsurf/m68k-unknown-amigaos/cross/lib/gcc/m68k-unknown-amigaos/3.4.6/libgcc.a(_fixunsdfdi.o)
                              /opt/netsurf/m68k-unknown-amigaos/cross/lib/gcc/m68k-unknown-amigaos/3.4.6/libgcc.a(_fixdfdi.o) (___fixunsdfdi)

Set                 Symbol

___INIT_LIST__      /opt/netsurf/m68k-unknown-amigaos/cross/lib/gcc/m68k-unknown-amigaos/3.4.6/../../../../m68k-unknown-amigaos/lib/libunix.a(stdlib_malloc.o)(.text+0x1ec):stdlib_malloc.o
___INIT_LIST__      ** ABS **
___INIT_LIST__      /opt/netsurf/m68k-unknown-amigaos/cross/lib/gcc/m68k-unknown-amigaos/3.4.6/../../../../m68k-unknown-amigaos/lib/libunix.a(stdio_init_exit.o)(.text+0x118):stdio_init_exit.o
___INIT_LIST__      ** ABS **
___INIT_LIST__      /opt/netsurf/m68k-unknown-amigaos/cross/lib/gcc/m68k-unknown-amigaos/3.4.6/../../../../m68k-unknown-amigaos/lib/libunix.a(dirent_closedir.o)(.text+0x0):dirent_closedir.o
___INIT_LIST__      ** ABS **
___INIT_LIST__      /opt/netsurf/m68k-unknown-amigaos/cross/lib/gcc/m68k-unknown-amigaos/3.4.6/../../../../m68k-unknown-amigaos/lib/libunix.a(stdlib_arg.o)(.text+0x28):stdlib_arg.o
___INIT_LIST__      ** ABS **
___INIT_LIST__      /opt/netsurf/m68k-unknown-amigaos/cross/lib/gcc/m68k-unknown-amigaos/3.4.6/../../../../m68k-unknown-amigaos/lib/libunix.a(stdio_file_init.o)(.text+0x2da):stdio_file_init.o
___INIT_LIST__      ** ABS **
___INIT_LIST__      /opt/netsurf/m68k-unknown-amigaos/cross/lib/gcc/m68k-unknown-amigaos/3.4.6/../../../../m68k-unknown-amigaos/lib/libm.a(math_init_exit.o)(.text+0xc0):math_init_exit.o
___INIT_LIST__      ** ABS **
___INIT_LIST__      /opt/netsurf/m68k-unknown-amigaos/cross/lib/gcc/m68k-unknown-amigaos/3.4.6/../../../../m68k-unknown-amigaos/lib/libc.a(unistd_init_exit.o)(.text+0x0):unistd_init_exit.o
___INIT_LIST__      ** ABS **
___INIT_LIST__      /opt/netsurf/m68k-unknown-amigaos/cross/lib/gcc/m68k-unknown-amigaos/3.4.6/../../../../m68k-unknown-amigaos/lib/libc.a(stdlib_program_name.o)(.text+0x2c):stdlib_program_name.o
___INIT_LIST__      ** ABS **
___INIT_LIST__      /opt/netsurf/m68k-unknown-amigaos/cross/lib/gcc/m68k-unknown-amigaos/3.4.6/../../../../m68k-unknown-amigaos/lib/libc.a(locale_init_exit.o)(.text+0x206):locale_init_exit.o
___INIT_LIST__      ** ABS **
___INIT_LIST__      /opt/netsurf/m68k-unknown-amigaos/cross/lib/gcc/m68k-unknown-amigaos/3.4.6/../../../../m68k-unknown-amigaos/lib/libc.a(unistd_timer.o)(.text+0x86):unistd_timer.o
___INIT_LIST__      ** ABS **
___INIT_LIST__      /opt/netsurf/m68k-unknown-amigaos/cross/lib/gcc/m68k-unknown-amigaos/3.4.6/../../../../m68k-unknown-amigaos/lib/libnet.a(socket_init_exit.o)(.text+0xc4):socket_init_exit.o
___INIT_LIST__      ** ABS **
___EXIT_LIST__      /opt/netsurf/m68k-unknown-amigaos/cross/lib/gcc/m68k-unknown-amigaos/3.4.6/../../../../m68k-unknown-amigaos/lib/libunix.a(stdlib_malloc.o)(.text+0x174):stdlib_malloc.o
___EXIT_LIST__      ** ABS **
___EXIT_LIST__      /opt/netsurf/m68k-unknown-amigaos/cross/lib/gcc/m68k-unknown-amigaos/3.4.6/../../../../m68k-unknown-amigaos/lib/libunix.a(stdio_init_exit.o)(.text+0x8c):stdio_init_exit.o
___EXIT_LIST__      ** ABS **
___EXIT_LIST__      /opt/netsurf/m68k-unknown-amigaos/cross/lib/gcc/m68k-unknown-amigaos/3.4.6/../../../../m68k-unknown-amigaos/lib/libunix.a(dirent_closedir.o)(.text+0x10):dirent_closedir.o
___EXIT_LIST__      ** ABS **
___EXIT_LIST__      /opt/netsurf/m68k-unknown-amigaos/cross/lib/gcc/m68k-unknown-amigaos/3.4.6/../../../../m68k-unknown-amigaos/lib/libunix.a(stdio_file_init.o)(.text+0x0):stdio_file_init.o
___EXIT_LIST__      ** ABS **
___EXIT_LIST__      /opt/netsurf/m68k-unknown-amigaos/cross/lib/gcc/m68k-unknown-amigaos/3.4.6/../../../../m68k-unknown-amigaos/lib/libunix.a(unistd_wildcard_expand.o)(.text+0x80):unistd_wildcard_expand.o
___EXIT_LIST__      ** ABS **
___EXIT_LIST__      /opt/netsurf/m68k-unknown-amigaos/cross/lib/gcc/m68k-unknown-amigaos/3.4.6/../../../../m68k-unknown-amigaos/lib/libunix.a(unistd_chdir_exit.o)(.text+0x0):unistd_chdir_exit.o
___EXIT_LIST__      ** ABS **
___EXIT_LIST__      /opt/netsurf/m68k-unknown-amigaos/cross/lib/gcc/m68k-unknown-amigaos/3.4.6/../../../../m68k-unknown-amigaos/lib/libm.a(math_init_exit.o)(.text+0x0):math_init_exit.o
___EXIT_LIST__      ** ABS **
___EXIT_LIST__      /opt/netsurf/m68k-unknown-amigaos/cross/lib/gcc/m68k-unknown-amigaos/3.4.6/../../../../m68k-unknown-amigaos/lib/libc.a(unistd_init_exit.o)(.text+0x24):unistd_init_exit.o
___EXIT_LIST__      ** ABS **
___EXIT_LIST__      /opt/netsurf/m68k-unknown-amigaos/cross/lib/gcc/m68k-unknown-amigaos/3.4.6/../../../../m68k-unknown-amigaos/lib/libc.a(stdlib_program_name.o)(.text+0x0):stdlib_program_name.o
___EXIT_LIST__      ** ABS **
___EXIT_LIST__      /opt/netsurf/m68k-unknown-amigaos/cross/lib/gcc/m68k-unknown-amigaos/3.4.6/../../../../m68k-unknown-amigaos/lib/libc.a(locale_init_exit.o)(.text+0x168):locale_init_exit.o
___EXIT_LIST__      ** ABS **
___EXIT_LIST__      /opt/netsurf/m68k-unknown-amigaos/cross/lib/gcc/m68k-unknown-amigaos/3.4.6/../../../../m68k-unknown-amigaos/lib/libc.a(unistd_timer.o)(.text+0x124):unistd_timer.o
___EXIT_LIST__      ** ABS **
___EXIT_LIST__      /opt/netsurf/m68k-unknown-amigaos/cross/lib/gcc/m68k-unknown-amigaos/3.4.6/../../../../m68k-unknown-amigaos/lib/libnet.a(socket_init_exit.o)(.text+0x0):socket_init_exit.o
___EXIT_LIST__      ** ABS **
___DTOR_LIST__      /opt/netsurf/m68k-unknown-amigaos/cross/lib/gcc/m68k-unknown-amigaos/3.4.6/../../../../m68k-unknown-amigaos/lib/libamisslauto.a(autoinit_assl.o)(.text+0x43c):autoinit_assl.o
___CTOR_LIST__      /opt/netsurf/m68k-unknown-amigaos/cross/lib/gcc/m68k-unknown-amigaos/3.4.6/../../../../m68k-unknown-amigaos/lib/libamisslauto.a(autoinit_assl.o)(.text+0x14c):autoinit_assl.o

Allocating common symbols
Common symbol       size              file

option_font_mono    0x4               build-newer-morphos/desktop_options.o
CyberGfxBase        0x4               build-newer-morphos/mui_gui.o
CodesetsBase        0x4               build-newer-morphos/mui_gui.o
default_stylesheet_url
                    0x4               build-newer-morphos/mui_gui.o
OpenURLBase         0x4               build-newer-morphos/mui_gui.o
application         0x4               build-newer-morphos/mui_netsurf.o
LayersBase          0x4               build-newer-morphos/mui_gui.o
plot                0x3e              build-newer-morphos/mui_plotters.o
browser_window_href_content
                    0x2f4             build-newer-morphos/desktop_browser.o
schedule_sig        0x4               build-newer-morphos/mui_schedule.o
ghost_caret         0x1a              build-newer-morphos/desktop_textinput.o
AslBase             0x4               build-newer-morphos/mui_gui.o
xmlLastError        0x34              /mnt/e/usr/local/amiga/m68k-amigaos/clib/extra/ns-lib/libxml2.a(globals.o)
browser_reformat_pending
                    0x2               build-newer-morphos/desktop_browser.o
url_re              0x8               build-newer-morphos/utils_url.o
AsyncIOBase         0x4               build-newer-morphos/mui_gui.o
MUIMasterBase       0x4               build-newer-morphos/mui_gui.o
save_complete_import_re
                    0x8               build-newer-morphos/mui_save_complete.o
TTEngineBase        0x4               build-newer-morphos/mui_gui.o
fetch_active        0x2               build-newer-morphos/content_fetch.o
option_font_serif   0x4               build-newer-morphos/desktop_options.o
adblock_stylesheet_url
                    0x4               build-newer-morphos/mui_gui.o
renderinfo          0x14              build-newer-morphos/mui_plotters.o
IconBase            0x4               build-newer-morphos/mui_gui.o
fetch_curl_multi    0x4               build-newer-morphos/content_fetchers_fetch_curl.o
option_font_fantasy
                    0x4               build-newer-morphos/desktop_options.o
option_font_cursive
                    0x4               build-newer-morphos/desktop_options.o
url_up_re           0x8               build-newer-morphos/utils_url.o
thread_count        0x4               build-newer-morphos/mui_netsurf.o
current_redraw_browser
                    0x4               build-newer-morphos/desktop_browser.o
option_font_sans    0x4               build-newer-morphos/desktop_options.o
search_current_window
                    0x4               build-newer-morphos/mui_search.o
IntuitionBase       0x4               build-newer-morphos/mui_gui.o

Memory Configuration

Name             Origin             Length             Attributes
*default*        0x00000000         0xffffffff

Linker script and memory map

LOAD /opt/netsurf/m68k-unknown-amigaos/cross/lib/gcc/m68k-unknown-amigaos/3.4.6/../../../../m68k-unknown-amigaos/lib/crt0.o
LOAD build-newer-morphos/content_content.o
LOAD build-newer-morphos/content_fetch.o
LOAD build-newer-morphos/content_fetchcache.o
LOAD build-newer-morphos/content_fetchers_fetch_curl.o
LOAD build-newer-morphos/content_fetchers_fetch_data.o
LOAD build-newer-morphos/content_urldb.o
LOAD build-newer-morphos/css_css.o
LOAD build-newer-morphos/css_css_enum.o
LOAD build-newer-morphos/css_parser.o
LOAD build-newer-morphos/css_ruleset.o
LOAD build-newer-morphos/css_scanner.o
LOAD build-newer-morphos/desktop_browser.o
LOAD build-newer-morphos/desktop_frames.o
LOAD build-newer-morphos/desktop_history_core.o
LOAD build-newer-morphos/desktop_knockout.o
LOAD build-newer-morphos/desktop_netsurf.o
LOAD build-newer-morphos/desktop_options.o
LOAD build-newer-morphos/desktop_print.o
LOAD build-newer-morphos/desktop_save_pdf_font_haru.o
LOAD build-newer-morphos/desktop_save_pdf_pdf_plotters.o
LOAD build-newer-morphos/desktop_save_text.o
LOAD build-newer-morphos/desktop_selection.o
LOAD build-newer-morphos/desktop_textinput.o
LOAD build-newer-morphos/desktop_tree.o
LOAD build-newer-morphos/desktop_version.o
LOAD build-newer-morphos/image_bmp.o
LOAD build-newer-morphos/image_gif.o
LOAD build-newer-morphos/image_ico.o
LOAD build-newer-morphos/image_jpeg.o
LOAD build-newer-morphos/image_mng.o
LOAD build-newer-morphos/image_nssprite.o
LOAD build-newer-morphos/image_png.o
LOAD build-newer-morphos/image_rsvg.o
LOAD build-newer-morphos/image_svg.o
LOAD build-newer-morphos/mui_addressbarclass.o
LOAD build-newer-morphos/mui_applicationclass.o
LOAD build-newer-morphos/mui_bitmap.o
LOAD build-newer-morphos/mui_browserclass.o
LOAD build-newer-morphos/mui_clipboard.o
LOAD build-newer-morphos/mui_cookies.o
LOAD build-newer-morphos/mui_downloadwindowclass.o
LOAD build-newer-morphos/mui_extrasrc.o
LOAD build-newer-morphos/mui_fetch.o
LOAD build-newer-morphos/mui_fetch_file.o
LOAD build-newer-morphos/mui_filetype.o
LOAD build-newer-morphos/mui_findtextclass.o
LOAD build-newer-morphos/mui_font.o
LOAD build-newer-morphos/mui_gui.o
LOAD build-newer-morphos/mui_history.o
LOAD build-newer-morphos/mui_historylistclass.o
LOAD build-newer-morphos/mui_historypopstringclass.o
LOAD build-newer-morphos/mui_hotlistwindowclass.o
LOAD build-newer-morphos/mui_loadpng.o
LOAD build-newer-morphos/mui_login.o
LOAD build-newer-morphos/mui_loginwindowclass.o
LOAD build-newer-morphos/mui_methodstack.o
LOAD build-newer-morphos/mui_mui.o
LOAD build-newer-morphos/mui_navigationbarclass.o
LOAD build-newer-morphos/mui_netsurf.o
LOAD build-newer-morphos/mui_pdfclass.o
LOAD build-newer-morphos/mui_plotters.o
LOAD build-newer-morphos/mui_popstringclass.o
LOAD build-newer-morphos/mui_print.o
LOAD build-newer-morphos/mui_quicklinkbuttongroupclass.o
LOAD build-newer-morphos/mui_quicklinkgroupclass.o
LOAD build-newer-morphos/mui_quicklinkparentgroupclass.o
LOAD build-newer-morphos/mui_save_complete.o
LOAD build-newer-morphos/mui_save_pdf.o
LOAD build-newer-morphos/mui_schedule.o
LOAD build-newer-morphos/mui_search.o
LOAD build-newer-morphos/mui_searchbarclass.o
LOAD build-newer-morphos/mui_throbber.o
LOAD build-newer-morphos/mui_thumbnail.o
LOAD build-newer-morphos/mui_titleclass.o
LOAD build-newer-morphos/mui_titlelabelclass.o
LOAD build-newer-morphos/mui_toolbuttonclass.o
LOAD build-newer-morphos/mui_transferanimclass.o
LOAD build-newer-morphos/mui_tree.o
LOAD build-newer-morphos/mui_utf8.o
LOAD build-newer-morphos/mui_utils.o
LOAD build-newer-morphos/mui_windowclass.o
LOAD build-newer-morphos/render_box.o
LOAD build-newer-morphos/render_box_construct.o
LOAD build-newer-morphos/render_box_normalise.o
LOAD build-newer-morphos/render_directory.o
LOAD build-newer-morphos/render_form.o
LOAD build-newer-morphos/render_html.o
LOAD build-newer-morphos/render_html_redraw.o
LOAD build-newer-morphos/render_hubbub_binding.o
LOAD build-newer-morphos/render_imagemap.o
LOAD build-newer-morphos/render_layout.o
LOAD build-newer-morphos/render_list.o
LOAD build-newer-morphos/render_loosen.o
LOAD build-newer-morphos/render_table.o
LOAD build-newer-morphos/render_textplain.o
LOAD build-newer-morphos/utils_base64.o
LOAD build-newer-morphos/utils_filename.o
LOAD build-newer-morphos/utils_hashtable.o
LOAD build-newer-morphos/utils_locale.o
LOAD build-newer-morphos/utils_messages.o
LOAD build-newer-morphos/utils_talloc.o
LOAD build-newer-morphos/utils_url.o
LOAD build-newer-morphos/utils_useragent.o
LOAD build-newer-morphos/utils_utf8.o
LOAD build-newer-morphos/utils_utils.o
LOAD /opt/netsurf/m68k-unknown-amigaos/env/lib/libjpeg.a
LOAD /opt/netsurf/m68k-unknown-amigaos/env/lib/libz.a
LOAD lib/libmui-5.a
LOAD /mnt/e/usr/local/amiga/m68k-amigaos/clib/extra/ns-lib/libasyncio.a
LOAD /mnt/e/usr/local/amiga/m68k-amigaos/clib/extra/ns-lib/libxml2.a
LOAD lib/libnsgif-0.0.3.a
LOAD lib/libnsbmp-0.0.2.a
LOAD /opt/netsurf/m68k-unknown-amigaos/env/lib/libtre.a
LOAD /opt/netsurf/m68k-unknown-amigaos/env/lib/libcurl.a
LOAD /opt/netsurf/m68k-unknown-amigaos/cross/lib/gcc/m68k-unknown-amigaos/3.4.6/../../../../m68k-unknown-amigaos/lib/libamisslauto.a
LOAD /opt/netsurf/m68k-unknown-amigaos/cross/lib/gcc/m68k-unknown-amigaos/3.4.6/../../../../m68k-unknown-amigaos/lib/libamisslstubs.a
LOAD /opt/netsurf/m68k-unknown-amigaos/env/lib/libiconv.a
LOAD /mnt/e/usr/local/amiga/m68k-amigaos/clib/extra/ns-lib/libamiga2.a
LOAD /opt/netsurf/m68k-unknown-amigaos/cross/lib/gcc/m68k-unknown-amigaos/3.4.6/../../../../m68k-unknown-amigaos/lib/libdebug.a
LOAD lib/libhubbub-0.0.2.a
LOAD lib/libparserutils-0.0.1.a
LOAD lib/libpng12.a
LOAD /opt/netsurf/m68k-unknown-amigaos/env/lib/libpbl.a
LOAD /opt/netsurf/m68k-unknown-amigaos/env/lib/libiconv.a
LOAD /opt/netsurf/m68k-unknown-amigaos/cross/lib/gcc/m68k-unknown-amigaos/3.4.6/../../../../m68k-unknown-amigaos/lib/libunix.a
LOAD /opt/netsurf/m68k-unknown-amigaos/cross/lib/gcc/m68k-unknown-amigaos/3.4.6/../../../../m68k-unknown-amigaos/lib/libm.a
LOAD /opt/netsurf/m68k-unknown-amigaos/cross/lib/gcc/m68k-unknown-amigaos/3.4.6/../../../../m68k-unknown-amigaos/lib/libc.a
LOAD /opt/netsurf/m68k-unknown-amigaos/cross/lib/gcc/m68k-unknown-amigaos/3.4.6/../../../../m68k-unknown-amigaos/lib/libnet.a
LOAD /mnt/e/usr/local/amiga/m68k-amigaos/clib/extra/ns-lib/libft2.a
LOAD /mnt/e/usr/local/amiga/m68k-amigaos/clib/extra/ns-lib/libjpeg-turbo.a
LOAD /opt/netsurf/m68k-unknown-amigaos/cross/lib/gcc/m68k-unknown-amigaos/3.4.6/libgcc.a
LOAD /opt/netsurf/m68k-unknown-amigaos/cross/lib/gcc/m68k-unknown-amigaos/3.4.6/../../../../m68k-unknown-amigaos/lib/libc.a
LOAD /opt/netsurf/m68k-unknown-amigaos/cross/lib/gcc/m68k-unknown-amigaos/3.4.6/../../../../m68k-unknown-amigaos/lib/libamiga.a
LOAD /opt/netsurf/m68k-unknown-amigaos/cross/lib/gcc/m68k-unknown-amigaos/3.4.6/../../../../m68k-unknown-amigaos/lib/libc.a
LOAD /opt/netsurf/m68k-unknown-amigaos/cross/lib/gcc/m68k-unknown-amigaos/3.4.6/libgcc.a
                0x00000000                PROVIDE (___machtype, 0x0)
                0x00000000                . = 0x0

.text           0x00000000   0x337a44
                0x00000000                __stext = .
 *(.text)
 .text          0x00000000       0x14 /opt/netsurf/m68k-unknown-amigaos/cross/lib/gcc/m68k-unknown-amigaos/3.4.6/../../../../m68k-unknown-amigaos/lib/crt0.o
                0x00000008                ___get_a4
                0x00000006                _geta4
                0x0000000c                ___set_a4
 .text          0x00000014     0x1b24 build-newer-morphos/content_content.o
                0x00000d82                _content_set_status
                0x00000a44                _content_set_type
                0x00000ec0                _content_process_data
                0x00000954                _content_get_ready
                0x000011fa                _content_set_done
                0x000018aa                _content_stop
                0x000008e6                _content_get
                0x00001b36                _content_add_error
                0x000017e4                _content_broadcast
                0x00001708                _content_find_user
                0x00000732                _content_lookup
                0x00001086                _content_convert
                0x0000169e                _content_add_user
                0x00001262                _content_reformat
                0x00001604                _content_redraw
                0x000009c4                _content_can_reformat
                0x0000078e                _content_create
                0x00000528                _content_type_name
                0x00001598                _content_quit
                0x00001ad8                _content_close
                0x00001760                _content_remove_user
                0x0000057a                _content_status_name
                0x000014d8                _content_reset
                0x00001a64                _content_open
                0x0000133e                _content_clean
                0x0000167e                _content_redraw_tiled
 .text          0x00001b38      0x960 build-newer-morphos/content_fetch.o
                0x000022d0                _fetch_get_parent_url
                0x00001b94                _fetch_init
                0x0000241a                _fetch_get_referer_to_send
                0x0000229e                _fetch_http_code
                0x00002270                _fetch_change_callback
                0x0000217c                _fetch_free
                0x00002148                _fetch_abort
                0x00001bda                _fetch_add_fetcher
                0x0000243c                _fetch_set_cookie
                0x000021d4                _fetch_poll
                0x00001cd2                _fetch_start
                0x0000232e                _fetch_send_callback
                0x0000234c                _fetch_remove_from_queues
                0x00002202                _fetch_can_fetch
                0x00001ba8                _fetch_quit
                0x0000240e                _fetch_set_http_code
                0x000022a8                _fetch_get_referer
                0x00002304                _fetch_get_verifiable
 .text          0x00002498     0x20f0 build-newer-morphos/content_fetchcache.o
                0x0000250c                _fetchcache
                0x00002858                _fetchcache_go
                0x0000320e                _fetchcache_init
 .text          0x00004588     0x2090 build-newer-morphos/content_fetchers_fetch_curl.o
                0x000046ea                _fetch_curl_register
 .text          0x00006618      0x5e8 build-newer-morphos/content_fetchers_fetch_data.o
                0x00006bd4                _fetch_data_register
 .text          0x00006c00     0x4390 build-newer-morphos/content_urldb.o
                0x0000ad8e                _urldb_destroy
                0x0000707e                _urldb_save
                0x00007daa                _urldb_iterate_cookies
                0x00007a62                _urldb_iterate_partial
                0x00007d62                _urldb_iterate_entries
                0x000094ca                _urldb_set_cookie
                0x000079ae                _urldb_set_thumbnail
                0x000088e0                _urldb_dump
                0x00007796                _urldb_get_auth_details
                0x00007a04                _urldb_get_thumbnail
                0x0000761a                _urldb_set_url_title
                0x000076ac                _urldb_update_url_visit_data
                0x000074ae                _urldb_set_url_persistence
                0x000076f0                _urldb_reset_url_visit_data
                0x0000788c                _urldb_set_auth_details
                0x000074ec                _urldb_add_url
                0x0000a8c8                _urldb_delete_cookie
                0x0000a38a                _urldb_load_cookies
                0x00008f5e                _urldb_get_cookie
                0x00007676                _urldb_set_url_content_type
                0x00007828                _urldb_get_cert_permissions
                0x00007762                _urldb_get_url
                0x00006cc0                _urldb_load
                0x0000ab72                _urldb_save_cookies
                0x00007956                _urldb_set_cert_permissions
                0x00007728                _urldb_get_url_data
 .text          0x0000af90     0x590c build-newer-morphos/css_css.o
                0x0000bb9e                _css_free_style
                0x0000b7da                _css_convert
                0x0000bd78                _css_new_selector
                0x0000bcd4                _css_deep_free_counter_control
                0x0000b28c                _css_empty_style
                0x0000f512                _css_cascade
                0x0000f132                _css_dump_stylesheet
                0x0001043e                _css_len2px
                0x0000d1c0                _css_dump_style
                0x0000bd44                _css_free_node
                0x0000cbf4                _css_parse_property_list
                0x0000be0c                _css_atimport
                0x0000bc54                _css_deep_free_content
                0x0000b9f0                _css_destroy
                0x0000b52c                _css_blank_style
                0x0000c498                _css_get_style
                0x0000bdbe                _css_free_selector
                0x00010618                _css_len2pt
                0x0000fd9a                _css_merge
                0x0000bb50                _css_duplicate_style
                0x0000afec                _css_base_style
                0x00010740                _css_eyecatching_border
                0x0000bd00                _css_new_node
                0x0000baa4                _css_set_origin
                0x0000c1f0                _css_make_working_stylesheet
                0x000103b6                _css_hash
 .text          0x0001089c     0x1f8c build-newer-morphos/css_css_enum.o
                0x00011320                _css_direction_parse
                0x00011314                _css_direction_name
                0x00011948                _css_font_style_name
                0x00012020                _css_page_break_after_name
                0x00011ab4                _css_font_weight_name
                0x00012210                _css_page_break_inside_parse
                0x000125ca                _css_unicode_bidi_name
                0x000124ea                _css_text_transform_name
                0x00011858                _css_font_family_parse
                0x0001176e                _css_float_name
                0x00010eb2                _css_clear_parse
                0x00011958                _css_font_style_parse
                0x00012734                _css_white_space_name
                0x00012038                _css_page_break_after_parse
                0x00010e18                _css_caption_side_parse
                0x00010a08                _css_background_attachment_name
                0x00010ac2                _css_background_repeat_parse
                0x00012204                _css_page_break_inside_name
                0x00010aae                _css_background_repeat_name
                0x00012378                _css_table_layout_parse
                0x000125da                _css_unicode_bidi_parse
                0x00010c7c                _css_border_style_parse
                0x0001212a                _css_page_break_before_parse
                0x0001236c                _css_table_layout_name
                0x00011ddc                _css_list_style_type_parse
                0x00011006                _css_cursor_name
                0x00011ce6                _css_list_style_position_name
                0x000119fa                _css_font_variant_name
                0x00010b8c                _css_border_collapse_name
                0x0001177e                _css_float_parse
                0x000116ec                _css_empty_cells_name
                0x00010c50                _css_border_style_name
                0x000124fe                _css_text_transform_parse
                0x00011aec                _css_font_weight_parse
                0x00011056                _css_cursor_parse
                0x00011f46                _css_overflow_name
                0x00012680                _css_visibility_parse
                0x000108b4                _css_unit_name
                0x00011840                _css_font_family_name
                0x000122b4                _css_position_parse
                0x000108d4                _css_unit_parse
                0x000122a0                _css_position_name
                0x00010e9e                _css_clear_name
                0x00011f5a                _css_overflow_parse
                0x00012670                _css_visibility_name
                0x00012112                _css_page_break_before_name
                0x00011a06                _css_font_variant_parse
                0x00010e0c                _css_caption_side_name
                0x00011492                _css_display_parse
                0x00011db4                _css_list_style_type_name
                0x000123fe                _css_text_align_name
                0x000116f8                _css_empty_cells_parse
                0x0001274c                _css_white_space_parse
                0x0001144e                _css_display_name
                0x00011cf2                _css_list_style_position_parse
                0x00012412                _css_text_align_parse
                0x00010a14                _css_background_attachment_parse
                0x00010b98                _css_border_collapse_parse
 .text          0x00012828     0x3300 build-newer-morphos/css_parser.o
                0x00015b22                _css_parser_Fallback
                0x00012fd6                _css_parser_Trace
                0x00013f14                _css_parser_Init
                0x000140a8                _css_parser_Free
                0x00013f34                _css_parser_Alloc
                0x000157de                _css_parser_
                0x00014084                _css_parser_Finalize
 .text          0x00015b28     0x6174 build-newer-morphos/css_ruleset.o
                0x00017e2c                _named_colour
                0x00017a40                _css_add_ruleset
                0x00019d0c                _parse_counter_control_data
                0x00017b80                _css_add_declarations
                0x00017fb8                _hex_colour
                0x00019db8                _parse_counter_control_new
 .text          0x0001bc9c     0x1ca8 build-newer-morphos/css_scanner.o
                0x0001bc9c                _css_tokenise
 .text          0x0001d944     0x37f0 build-newer-morphos/desktop_browser.o
                0x0001e900                _browser_window_reload
                0x00021098                _browser_window_back_available
                0x0001e752                _browser_window_update
                0x00020ade                _browser_form_submit
                0x0001db60                _browser_window_go_unverifiable
                0x0001eb80                _browser_window_owner
                0x00020676                _browser_window_redraw_rect
                0x0001ed3c                _browser_window_refresh_url_bar
                0x0001da94                _browser_window_initialise_common
                0x00020838                _browser_window_form_select
                0x0001ebc0                _browser_window_reformat
                0x0001fe08                _browser_window_mouse_track
                0x0001d9d0                _browser_window_create
                0x0001ec22                _browser_window_set_scale
                0x0001e81c                _browser_window_stop
                0x00020724                _browser_redraw_box
                0x0001db12                _browser_window_go
                0x0002110c                _browser_window_stop_available
                0x00020116                _browser_window_mouse_drag_end
                0x000210c4                _browser_window_forward_available
                0x000210f0                _browser_window_reload_available
                0x0001db3c                _browser_window_download
                0x0001e9de                _browser_window_destroy
                0x0001f204                _browser_window_mouse_click
 .text          0x00021134     0x1270 build-newer-morphos/desktop_frames.o
                0x00021b78                _browser_window_resize_frame
                0x00021644                _browser_window_recalculate_frameset
                0x0002119a                _browser_window_create_iframes
                0x000212d8                _browser_window_recalculate_iframes
                0x000213d0                _browser_window_create_frameset
                0x00021fc2                _browser_window_resize_frames
 .text          0x000223a4      0xca4 build-newer-morphos/desktop_history_core.o
                0x00022fbc                _history_position_url
                0x000229ea                _history_back_available
                0x00022a0c                _history_forward_available
                0x000229bc                _history_forward
                0x0002298c                _history_back
                0x00022446                _history_clone
                0x00022632                _history_add
                0x0002240a                _history_create
                0x00022ca8                _history_redraw_rectangle
                0x00022824                _history_update
                0x00022924                _history_destroy
                0x00022c7c                _history_redraw
                0x00022f72                _history_click
                0x00022c66                _history_size
 .text          0x00023048      0xfe8 build-newer-morphos/desktop_knockout.o
                0x000230e2                _knockout_plot_start
                0x00023120                _knockout_plot_end
                0x000230a4                _knockout_plotters
 .text          0x00024030      0x214 build-newer-morphos/desktop_netsurf.o
                0x000240ea                _netsurf_init
                0x000240d0                _netsurf_main_loop
                0x000240ba                _netsurf_main
                0x000241d2                _netsurf_exit
                0x0002408c                _main
 .text          0x00024244      0xed4 build-newer-morphos/desktop_options.o
                0x000249c2                _options_load_tree
                0x000245ea                _options_read
                0x00024e8c                _options_save_tree
                0x00024dec                _options_find_tree_element
                0x00025096                _options_save_tree_entry
                0x00024784                _options_write
                0x00025012                _options_save_tree_directory
                0x0002486a                _options_dump
 .text          0x00025118      0x7bc build-newer-morphos/desktop_print.o
                0x000255ea                _print_cleanup
                0x000251bc                _print_basic_run
                0x0002525c                _print_set_up
                0x000252c0                _print_draw_next_page
                0x0002565c                _print_make_settings
 .text          0x000258d4      0x420 build-newer-morphos/desktop_save_text.o
                0x00025934                _save_as_text
                0x000259fc                _save_text_solve_whitespace
 .text          0x00025cf4      0xeb4 build-newer-morphos/desktop_selection.o
                0x00025e7e                _selection_init
                0x00026614                _selection_clear
                0x00026b6e                _selection_update
                0x00026914                _selection_highlighted
                0x00025d80                _selection_destroy
                0x000268da                _selection_get_end
                0x0002666e                _selection_select_all
                0x00025d50                _selection_create
                0x00025eda                _selection_label_subtree
                0x0002671c                _selection_set_start
                0x00026a78                _selection_save_text
                0x00025eb6                _selection_read_only
                0x00025da4                _selection_reinit
                0x00025f5c                _selection_click
                0x0002639a                _selection_traverse
                0x000268b6                _selection_get_start
                0x000260cc                _selection_track
                0x000267d8                _selection_set_end
 .text          0x00026ba8     0x2a64 build-newer-morphos/desktop_textinput.o
                0x00026c04                _caret_remove
                0x00028568                _browser_window_paste_text
                0x00026f4a                _browser_window_textarea_click
                0x000282dc                _browser_window_remove_caret
                0x000284c8                _browser_window_key_press
                0x00026d2c                _textarea_get_position
                0x00027b50                _browser_window_input_click
                0x00026c48                _caret_set_position
 .text          0x0002960c     0x1cc0 build-newer-morphos/desktop_tree.o
                0x0002a13c                _tree_handle_selection_area
                0x0002985a                _tree_handle_node_element_changed
                0x00029dda                _tree_get_node_element_at
                0x0002a5a4                _tree_get_link_details
                0x0002aa66                _tree_create_folder_node
                0x0002add4                _tree_create_cookie_node
                0x0002ac94                _tree_create_URL_node_shared
                0x0002ab70                _tree_create_leaf_node_shared
                0x0002a06e                _tree_move_processing_node
                0x0002a0f4                _tree_has_selection
                0x00029d46                _tree_set_node_selected
                0x0002abe6                _tree_create_URL_node
                0x0002b27c                _tree_get_selected_node
                0x0002a046                _tree_clear_processing
                0x0002aaec                _tree_create_leaf_node
                0x0002a66a                _tree_link_node
                0x0002b208                _tree_recalculate_size
                0x0002a7ca                _tree_delete_selected_nodes
                0x00029bc8                _tree_set_node_expanded
                0x0002976e                _tree_handle_node_changed
                0x0002967c                _tree_initialise
                0x000298f8                _tree_recalculate_node
                0x000296f8                _tree_initialise_nodes
                0x0002a34a                _tree_draw
                0x0002a812                _tree_delete_node
                0x00029f10                _tree_find_element
                0x00029db6                _tree_get_node_at
                0x00029f38                _tree_move_selected_nodes
                0x0002a740                _tree_delink_node
                0x000299d8                _tree_recalculate_node_positions
                0x00029c28                _tree_handle_expansion
 .text          0x0002b2cc       0x20 build-newer-morphos/desktop_version.o
                0x0002b2de                _netsurf_version
                0x0002b2e2                _netsurf_version_major
                0x0002b2e6                _netsurf_version_minor
 .text          0x0002b2ec      0x3a4 build-newer-morphos/image_bmp.o
                0x0002b3f0                _nsbmp_convert
                0x0002b638                _nsbmp_destroy
                0x0002b5c6                _nsbmp_redraw_tiled
                0x0002b56c                _nsbmp_redraw
                0x0002b352                _nsbmp_create
                0x0002b666                _nsbmp_bitmap_create
 .text          0x0002b690      0x95c build-newer-morphos/image_gif.o
                0x0002b9d0                _nsgif_redraw_tiled
                0x0002ba44                _nsgif_destroy
                0x0002b974                _nsgif_redraw
                0x0002b794                _nsgif_convert
                0x0002bfd4                _nsgif_bitmap_create
                0x0002b6f6                _nsgif_create
 .text          0x0002bfec      0x3e4 build-newer-morphos/image_ico.o
                0x0002c2aa                _nsico_redraw
                0x0002c052                _nsico_create
                0x0002c31c                _nsico_redraw_tiled
                0x0002c3a2                _nsico_destroy
                0x0002c100                _nsico_convert
 .text          0x0002c3d0      0x420 build-newer-morphos/image_jpeg.o
                0x0002c7c8                _nsjpeg_destroy
                0x0002c440                _nsjpeg_convert
                0x0002c758                _nsjpeg_redraw
                0x0002c788                _nsjpeg_redraw_tiled
 .text          0x0002c7f0      0x7d8 build-newer-morphos/image_png.o
                0x0002c866                _nspng_create
                0x0002cf3a                _nspng_redraw
                0x0002ca48                _nspng_process_data
                0x0002cf76                _nspng_redraw_tiled
                0x0002cf12                _nspng_destroy
                0x0002ce28                _nspng_convert
 .text          0x0002cfc8      0x65c build-newer-morphos/mui_addressbarclass.o
                0x0002d61a                _getaddressbargroupclassroot
                0x0002d5f0                _delete_addressbargroupclass
                0x0002d60e                _getaddressbargroupclass
                0x0002d59a                _create_addressbargroupclass
 .text          0x0002d624     0x1874 build-newer-morphos/mui_applicationclass.o
                0x0002ee66                _delete_applicationclass
                0x0002ee90                _getapplicationclassroot
                0x0002ee10                _create_applicationclass
                0x0002ee84                _getapplicationclass
 .text          0x0002ee98      0x268 build-newer-morphos/mui_bitmap.o
                0x0002f0a4                _bitmap_get_width
                0x0002f0c0                _bitmap_flush
                0x0002ef68                _bitmap_create
                0x0002eef4                _bitmap_cleanup
                0x0002f008                _bitmap_get_rowstride
                0x0002ef16                _bitmap_cache_check
                0x0002f0b0                _bitmap_get_height
                0x0002effe                _bitmap_get_buffer
                0x0002f084                _bitmap_test_opaque
                0x0002f072                _bitmap_set_suspendable
                0x0002f066                _bitmap_modified
                0x0002f0bc                _bitmap_get_bpp
                0x0002f074                _bitmap_set_opaque
                0x0002f094                _bitmap_get_opaque
                0x0002f012                _bitmap_destroy
                0x0002f062                _bitmap_save
 .text          0x0002f100     0x1974 build-newer-morphos/mui_browserclass.o
                0x0002f15c                _textinput_enable
                0x00030a6c                _getbrowserclassroot
                0x000309ec                _create_browserclass
                0x00030a42                _delete_browserclass
                0x00030a60                _getbrowserclass
                0x0002f15e                _textinput_disable
 .text          0x00030a74      0x3d8 build-newer-morphos/mui_clipboard.o
                0x00030d7a                _gui_copy_to_clipboard
                0x00030a74                _mui_clipboard_init
                0x00030c86                _gui_add_to_clipboard
                0x00030af2                _gui_start_selection
                0x00030c82                _gui_empty_clipboard
                0x00030abc                _mui_clipboard_free
                0x00030cc8                _gui_commit_clipboard
                0x00030af4                _gui_paste_from_clipboard
                0x00030af0                _gui_drag_save_selection
 .text          0x00030e4c      0x284 build-newer-morphos/mui_cookies.o
                0x00030eb6                _mui_cookies_initialise
                0x00030f62                _cookies_update
 .text          0x000310d0      0xba4 build-newer-morphos/mui_downloadwindowclass.o
                0x00031bec                _create_downloadwindowclass
                0x00031c60                _getdownloadwindowclass
                0x00031c42                _delete_downloadwindowclass
                0x00031c6c                _getdownloadwindowclassroot
 .text          0x00031c74      0x410 build-newer-morphos/mui_extrasrc.o
                0x00031dc4                _WritePixelArrayAlpha
                0x0003206c                _GetPred
                0x0003205a                _GetSucc
                0x00031c74                _DoSuperNew
                0x00032032                _GetHead
                0x00032044                _GetTail
                0x00031d6a                _NewRawDoFmt
                0x00031d1a                _NewRawDoFmt_org
                0x00031cfa                _NewObject
                0x00031f7c                _UTF8_Decode
 .text          0x00032084      0x200 build-newer-morphos/mui_fetch.o
                0x000320e0                _mui_fetch_initialise
                0x0003217a                _mui_fetch_start
                0x00032136                _mui_fetch_setup
                0x000320e4                _mui_fetch_finalise
                0x000321c2                _mui_fetch_abort
                0x000321e6                _mui_fetch_send_callback
                0x00032214                _mui_fetch_free
 .text          0x00032284      0x394 build-newer-morphos/mui_fetch_file.o
                0x000325e2                _mui_fetch_file_register
                0x000322e0                _mui_fetch_file_finalise
 .text          0x00032618      0x1f4 build-newer-morphos/mui_filetype.o
                0x000327a8                _fetch_filetype
                0x000327fa                _fetch_mimetype
 .text          0x0003280c      0x480 build-newer-morphos/mui_findtextclass.o
                0x00032c84                _getfindtextclassroot
                0x00032c5a                _delete_findtextclass
                0x00032c04                _create_findtextclass
                0x00032c78                _getfindtextclass
 .text          0x00032c8c      0x890 build-newer-morphos/mui_font.o
                0x00032cfe                _font_cleanup
                0x0003350e                _nsfont
                0x00032ce8                _font_init
                0x00032f5e                _mui_open_font
                0x00032dda                _mui_close_font
                0x00032d48                _font_cache_check
 .text          0x0003351c     0x1ccc build-newer-morphos/mui_gui.o
                0x00034f80                _gui_window_set_url
                0x0003502a                _gui_window_scroll_start
                0x00034c4e                _gui_window_redraw_window
                0x00035038                _gui_download_window_create
                0x00034768                _gui_window_redraw5
                0x00034fce                _gui_window_stop_throbber
                0x00034926                _gui_window_redraw3
                0x00033ec2                _gui_multitask
                0x00034c76                _gui_window_update_box
                0x000351de                _gui_drag_save_object
                0x00034f18                _gui_window_set_status
                0x00035036                _gui_window_set_scale
                0x000349dc                _gui_window_redraw2
                0x00033fa2                _gui_create_browser_window1
                0x00034fa8                _gui_window_start_throbber
                0x0003502e                _gui_window_box_scroll_start
                0x00034e4c                _gui_window_set_scroll
                0x00035034                _gui_window_save_as_link
                0x00033f1a                _gui_quit
                0x00033f1c                _gui_create_browser_window
                0x00035032                _gui_window_frame_resize_start
                0x000351ba                _gui_download_window_done
                0x000351e0                _gui_create_form_select_menu
                0x000340e8                _gui_window_redraw
                0x00035144                _gui_download_window_data
                0x00034a92                _gui_window_redraw1
                0x0003485c                _gui_window_redraw4
                0x000351e4                _gui_cert_verify
                0x00033d46                _gui_init2
                0x00034214                _gui_window_redraw11
                0x00034024                _gui_window_destroy
                0x00034b7a                _gui_window_redraw_org
                0x000340be                _gui_window_set_title
                0x000342f0                _gui_window_redraw10
                0x00034f48                _gui_window_set_pointer
                0x00034ff6                _gui_window_place_caret
                0x00033ee6                _gui_poll
                0x00034eb6                _gui_window_scroll_visible
                0x0003465c                _gui_window_redraw6
                0x00034ecc                _gui_window_get_dimensions
                0x000343a8                _gui_window_redraw9
                0x00034f4a                _gui_window_hide_pointer
                0x00035000                _gui_window_remove_caret
                0x000351e2                _gui_launch_url
                0x00035196                _gui_download_window_error
                0x00034f16                _gui_window_update_extent
                0x00034448                _gui_window_redraw8
                0x00034e06                _gui_window_get_scroll
                0x00033b8a                _gui_init
                0x0003457c                _gui_window_redraw7
                0x00034eca                _gui_window_position_frame
                0x00035002                _gui_window_new_content
 .text          0x000351e8      0x650 build-newer-morphos/mui_history.o
                0x00035716                _mui_global_history_save
                0x0003576e                _global_history_add_recent
                0x00035826                _global_history_get_recent
                0x000354ac                _mui_global_history_initialise
                0x000355a6                _global_history_add
 .text          0x00035838      0x59c build-newer-morphos/mui_historylistclass.o
                0x00035d4a                _create_historylistclass
                0x00035da0                _delete_historylistclass
                0x00035dca                _gethistorylistclassroot
                0x00035dbe                _gethistorylistclass
 .text          0x00035dd4      0x7f0 build-newer-morphos/mui_historypopstringclass.o
                0x000365ae                _gethistorypopstringclass
                0x000365ba                _gethistorypopstringclassroot
                0x00036590                _delete_historypopstringclass
                0x0003653a                _create_historypopstringclass
 .text          0x000365c4      0xcf0 build-newer-morphos/mui_hotlistwindowclass.o
                0x0003729c                _gethotlistwindowclass
                0x000372a8                _gethotlistwindowclassroot
                0x00037228                _create_hotlistwindowclass
                0x000372b0                _hotlist_visited
                0x0003727e                _delete_hotlistwindowclass
 .text          0x000372b4      0x5c0 build-newer-morphos/mui_loadpng.o
                0x0003769a                _png_load
 .text          0x00037874       0x5c build-newer-morphos/mui_login.o
 .text          0x000378d0      0x590 build-newer-morphos/mui_loginwindowclass.o
                0x00037e4a                _getloginwindowclass
                0x00037dd6                _create_loginwindowclass
                0x00037e2c                _delete_loginwindowclass
                0x00037e56                _getloginwindowclassroot
 .text          0x00037e60      0x11c build-newer-morphos/mui_methodstack.o
                0x00037f44                _methodstack_push
                0x00037f60                _methodstack_push_imm
                0x00037ebc                _methodstack_init
                0x00037ebe                _methodstack_cleanup
                0x00037f2a                _methodstack_push_sync
 .text          0x00037f7c      0x5b0 build-newer-morphos/mui_mui.o
                0x000382fc                _MakeHBar
                0x00038506                _getv
                0x0003829c                _MakeButton
                0x000383d2                _MakePrefsString
                0x00038436                _MakeDirString
                0x0003833e                _MakeNewString
                0x000382d8                _MakeVBar
                0x0003828c                _MakeRect
                0x0003838e                _MakeString
                0x000384c2                _MakeCycle
                0x00038320                _MakeLabel
                0x00038240                _MakeCheck
                0x00038222                _classes_cleanup
                0x000381ec                _classes_init
 .text          0x0003852c      0x484 build-newer-morphos/mui_navigationbarclass.o
                0x0003897e                _delete_navigationbargroupclass
                0x0003899c                _getnavigationbargroupclass
                0x00038928                _create_navigationbargroupclass
                0x000389a8                _getnavigationbargroupclassroot
 .text          0x000389b0      0x33c build-newer-morphos/mui_netsurf.o
                0x00038a0c                _version
                0x00038cd0                _netsurf_cleanup
                0x00038ba8                _netsurf_check_events
                0x00038c90                _netsurf_setup
 .text          0x00038cec      0x534 build-newer-morphos/mui_pdfclass.o
                0x000391ec                _delete_pdfclass
                0x00039216                _getpdfclassroot
                0x0003920a                _getpdfclass
                0x00039196                _create_pdfclass
 .text          0x00039220     0x174c build-newer-morphos/mui_plotters.o
                0x0003955a                _SetColorAB3
                0x000397d8                _SetColorAB
                0x000392de                _SetColorAB1
                0x0003a92c                _muiplot
 .text          0x0003a96c      0x71c build-newer-morphos/mui_popstringclass.o
                0x0003b072                _getpopstringclass
                0x0003b054                _delete_popstringclass
                0x0003affe                _create_popstringclass
                0x0003b07e                _getpopstringclassroot
 .text          0x0003b088      0x460 build-newer-morphos/mui_print.o
                0x0003b3c6                _print_doc
 .text          0x0003b4e8      0x7b8 build-newer-morphos/mui_quicklinkbuttongroupclass.o
                0x0003bc18                _create_quicklinkbuttongroupclass
                0x0003bc8c                _getquicklinkbuttongroupclass
                0x0003bc6e                _delete_quicklinkbuttongroupclass
                0x0003bc98                _getquicklinkbuttongroupclassroot
 .text          0x0003bca0      0xfb4 build-newer-morphos/mui_quicklinkgroupclass.o
                0x0003cc22                _delete_quicklinkgroupclass
                0x0003cbcc                _create_quicklinkgroupclass
                0x0003cc4c                _getquicklinkgroupclassroot
                0x0003cc40                _getquicklinkgroupclass
 .text          0x0003cc54      0x6bc build-newer-morphos/mui_quicklinkparentgroupclass.o
                0x0003d308                _getquicklinkparentgroupclassroot
                0x0003d2de                _delete_quicklinkparentgroupclass
                0x0003d2fc                _getquicklinkparentgroupclass
                0x0003d288                _create_quicklinkparentgroupclass
 .text          0x0003d310      0xf34 build-newer-morphos/mui_save_complete.o
                0x0003d36c                _save_complete
                0x0003da5a                _save_complete_init
 .text          0x0003e244      0x2e8 build-newer-morphos/mui_schedule.o
                0x0003e4c2                _mui_schedule_finalise
                0x0003e2e4                _schedule
                0x0003e368                _schedule_remove
                0x0003e3c8                _mui_schedule_poll
                0x0003e450                _mui_schedule_init
 .text          0x0003e52c      0x90c build-newer-morphos/mui_search.o
                0x0003ed94                _start_search
                0x0003e948                _gui_search_term_highlighted
                0x0003e8a0                _find_occurrences_text
 .text          0x0003ee38      0x3d0 build-newer-morphos/mui_searchbarclass.o
                0x0003f17e                _create_searchbargroupclass
                0x0003f1f2                _getsearchbargroupclass
                0x0003f1d4                _delete_searchbargroupclass
                0x0003f1fe                _getsearchbargroupclassroot
 .text          0x0003f208     0x3cc0 build-newer-morphos/mui_throbber.o
                0x0003f208                _Throbber
 .text          0x00042ec8        0x4 build-newer-morphos/mui_thumbnail.o
                0x00042ec8                _thumbnail_create
 .text          0x00042ecc      0x344 build-newer-morphos/mui_titleclass.o
                0x00043206                _gettitleclassroot
                0x00043186                _create_titleclass
                0x000431dc                _delete_titleclass
                0x000431fa                _gettitleclass
 .text          0x00043210      0x458 build-newer-morphos/mui_titlelabelclass.o
                0x000435e0                _create_titlelabelclass
                0x00043654                _gettitlelabelclass
                0x00043636                _delete_titlelabelclass
                0x00043660                _gettitlelabelclassroot
 .text          0x00043668      0x560 build-newer-morphos/mui_toolbuttonclass.o
                0x00043b52                _gettoolbuttonclassroot
                0x00043b6e                _create_toolbutton
                0x00043b46                _gettoolbuttonclass
                0x00043b28                _delete_toolbuttonclass
                0x00043ad2                _create_toolbuttonclass
 .text          0x00043bc8      0x6e4 build-newer-morphos/mui_transferanimclass.o
                0x00043c7c                _transferanimclass_load
                0x00044296                _gettransferanimclass
                0x00044278                _delete_transferanimclass
                0x00043d18                _transferanimclass_unload
                0x00044222                _create_transferanimclass
                0x000442a2                _gettransferanimclassroot
 .text          0x000442ac      0x174 build-newer-morphos/mui_tree.o
                0x000442b6                _tree_recalculate_node_element
                0x000442b4                _tree_draw_node_expansion
                0x0004441a                _tree_resized
                0x000442d8                _tree_update_URL_node
                0x0004441e                _tree_set_node_sprite
                0x0004441c                _tree_set_node_sprite_folder
                0x000442ac                _tree_initialise_redraw
                0x000442ae                _tree_redraw_area
                0x000442b0                _tree_draw_line
                0x000442b2                _tree_draw_node_element
 .text          0x00044420       0x5c build-newer-morphos/mui_utf8.o
                0x00044420                _utf8_to_local_encoding
 .text          0x0004447c      0x650 build-newer-morphos/mui_utils.o
                0x0004463e                _utf8_octets
                0x000445be                _utf8_at_index
                0x0004478a                _die
                0x000446e4                _utf8_to_amiga1
                0x0004475c                _warn_user
                0x000444d8                _GetNameFromLock
                0x000448bc                _uname
                0x0004467a                _utf8_to_amiga
                0x00044602                _utf8_codepoints
                0x00044854                _path_to_url
                0x00044532                _BuildFileName
                0x000447ba                _url_to_path
                0x00044ac8                _select1
                0x00044930                _strtof
                0x00044584                _DupStr
                0x00044aca                ___chkabort
 .text          0x00044acc     0x1550 build-newer-morphos/mui_windowclass.o
                0x00045f92                _create_windowclass
                0x00046012                _getwindowclassroot
                0x00045fe8                _delete_windowclass
                0x00046006                _getwindowclass
 .text          0x0004601c     0x15b0 build-newer-morphos/render_box.o
                0x000462f8                _box_coords
                0x00046212                _box_insert_sibling
                0x000468ee                _box_visible
                0x000461a8                _box_add_child
                0x00046084                _box_create
                0x00046250                _box_unlink_and_free
                0x000462ca                _box_free_box
                0x000471e4                _box_duplicate_tree
                0x00046788                _box_object_at_point
                0x00046396                _box_at_point
                0x0004689c                _box_find_by_id
                0x0004634c                _box_bounds
                0x0004629e                _box_free
                0x00046bd0                _box_dump
                0x00046812                _box_href_at_point
 .text          0x000475cc     0x3fa4 build-newer-morphos/render_box_construct.o
                0x000479cc                _box_construct_element
                0x00048196                _box_construct_text
                0x0004b2bc                _box_extract_link
                0x00047764                _xml_to_box
 .text          0x0004b570     0x121c build-newer-morphos/render_box_normalise.o
                0x0004b668                _box_normalise_block
 .text          0x0004c78c      0x3e0 build-newer-morphos/render_directory.o
                0x0004c886                _directory_convert
                0x0004c7bc                _directory_create
                0x0004cb56                _directory_destroy
 .text          0x0004cb6c      0xcb8 build-newer-morphos/render_form.o
                0x0004cf30                _form_successful_controls
                0x0004cdd6                _form_free_control
                0x0004cce0                _form_free
                0x0004cd7e                _form_add_control
                0x0004cbca                _form_new
                0x0004cd2e                _form_new_control
                0x0004ce66                _form_add_option
                0x0004d5c8                _form_free_successful
                0x0004d45e                _form_url_encode
 .text          0x0004d824     0x2f80 build-newer-morphos/render_html.o
                0x0004f746                _html_replace_object
                0x00050340                _html_reformat
                0x0004d984                _html_create
                0x0004daf8                _html_process_data
                0x000503be                _html_destroy
                0x0004de02                _html_convert
                0x0004f5fc                _html_fetch_object
                0x000506d6                _html_open
                0x0005074c                _html_close
                0x0005029c                _html_stop
 .text          0x000507a4     0x4c1c build-newer-morphos/render_html_redraw.o
                0x00051c18                _text_redraw
                0x0005520e                _box_vscrollbar_present
                0x0005526e                _box_scrollbar_dimensions
                0x000523f2                _html_redraw_inline_borders
                0x0005523e                _box_hscrollbar_present
                0x0005081a                _html_redraw
 .text          0x000553c0     0x1314 build-newer-morphos/render_hubbub_binding.o
                0x00055528                _binding_create_tree
                0x00055710                _binding_get_forms
                0x00055644                _binding_destroy_tree
                0x0005568a                _binding_parse_chunk
                0x000556be                _binding_parse_completed
                0x00055738                _binding_get_control_for_node
                0x000556e6                _binding_get_encoding
                0x00055702                _binding_get_document
 .text          0x000566d4     0x110c build-newer-morphos/render_imagemap.o
                0x000568b8                _imagemap_destroy
                0x00056952                _imagemap_dump
                0x00056a7a                _imagemap_extract
                0x000573f6                _imagemap_get
 .text          0x000577e0     0x6954 build-newer-morphos/render_layout.o
                0x0005deca                _layout_calculate_descendant_bboxes
                0x0005786a                _layout_document
                0x00059988                _layout_inline_container
                0x0005c50e                _layout_minmax_table
 .text          0x0005e134      0x66c build-newer-morphos/render_list.o
                0x0005e2e8                _render_list_counter_reset
                0x0005e79e                _render_list_test
                0x0005e42e                _render_list_counter
                0x0005e298                _render_list_destroy_counters
                0x0005e368                _render_list_counter_increment
                0x0005e3dc                _render_list_counter_end_scope
 .text          0x0005e7a0      0x7d8 build-newer-morphos/render_loosen.o
                0x0005e7fc                _loosen_document_layout
 .text          0x0005ef78      0xab8 build-newer-morphos/render_table.o
                0x0005f9c0                _table_find_cell
                0x0005f48c                _table_collapse_borders
                0x0005f01a                _table_calculate_column_types
 .text          0x0005fa30      0xfa0 build-newer-morphos/render_textplain.o
                0x00060976                _textplain_get_raw_data
                0x000600b6                _textplain_redraw
                0x0005fac2                _textplain_create
                0x000604f0                _textplain_offset_from_coords
                0x0006009c                _textplain_destroy
                0x00060796                _textplain_coords_from_range
                0x0005fe2c                _textplain_convert
                0x0006066a                _textplain_find_line
                0x0005fc6e                _textplain_process_data
                0x00060920                _textplain_get_line
                0x0005fe90                _textplain_reformat
 .text          0x000609d0      0x43c build-newer-morphos/utils_base64.o
                0x00060c5c                _base64_decode
                0x00060a10                _base64_encode
                0x00060aec                _base64_encode_alloc
                0x00060c44                _isbase64
                0x00060d96                _base64_decode_alloc
 .text          0x00060e0c      0x8fc build-newer-morphos/utils_filename.o
                0x000610a6                _filename_initialise
                0x00061104                _filename_flush
                0x00060fd2                _filename_release
                0x00060f34                _filename_claim
                0x00060e70                _filename_request
 .text          0x00061708      0x2d4 build-newer-morphos/utils_hashtable.o
                0x00061986                _hash_iterate
                0x000618e8                _hash_get
                0x0006180a                _hash_add
                0x00061764                _hash_create
                0x000617ae                _hash_destroy
 .text          0x000619dc      0x290 build-newer-morphos/utils_locale.o
                0x00061bd4                _ls_isxdigit
                0x00061b0c                _ls_isprint
                0x000619e0                _ls_isalpha
                0x00061a76                _ls_isdigit
                0x00061b3e                _ls_ispunct
                0x00061ada                _ls_islower
                0x00061a12                _ls_isalnum
                0x00061c06                _ls_tolower
                0x00061aa8                _ls_isgraph
                0x00061b70                _ls_isspace
                0x00061c38                _ls_toupper
                0x00061ba2                _ls_isupper
                0x00061a44                _ls_iscntrl
 .text          0x00061c6c      0x2bc build-newer-morphos/utils_messages.o
                0x00061ed2                _messages_get_ctx
                0x00061e5e                _messages_load
                0x00061f16                _messages_get
                0x00061d12                _messages_load_ctx
 .text          0x00061f28     0x3508 build-newer-morphos/utils_talloc.o
                0x000630e8                _talloc_check_name
                0x00064062                _talloc_reference_count
                0x00064794                __talloc_memdup
                0x000650ee                _talloc_autofree_context
                0x000623b8                _talloc_unlink
                0x00065302                _talloc_show_parents
                0x0006377e                __talloc
                0x00063964                _talloc_free
                0x00063f66                __talloc_move
                0x0006383c                _talloc_set_name_const
                0x00063b7e                __talloc_realloc
                0x0006345c                _talloc_free_children
                0x00061fd2                __talloc_set_destructor
                0x00062092                __talloc_reference
                0x000651fe                _talloc_get_size
                0x000640a2                _talloc_report_depth_cb
                0x00063120                _talloc_init
                0x000642da                _talloc_report_full
                0x000653c0                _talloc_is_parent
                0x0006467a                _talloc_enable_leak_report_full
                0x000642f0                _talloc_report
                0x00064452                _talloc_disable_null_tracking
                0x00062004                _talloc_increase_ref_count
                0x0006309c                _talloc_get_name
                0x00064ad0                _talloc_vasprintf
                0x000621fa                __talloc_steal
                0x000648b6                _talloc_strdup
                0x000649ae                _talloc_strndup
                0x00064c1e                _talloc_vasprintf_append
                0x00062cb2                _talloc_set_name
                0x00063ff8                _talloc_total_blocks
                0x00064d1a                __talloc_array
                0x00061f7e                _talloc_parent_name
                0x00061f28                _talloc_parent
                0x00064c02                _talloc_asprintf
                0x00064eaa                _talloc_realloc_fn
                0x00064cfe                _talloc_asprintf_append
                0x00065236                _talloc_find_parent_byname
                0x00064364                _talloc_enable_null_tracking
                0x00062d3a                _talloc_named
                0x00063870                _talloc_named_const
                0x00064668                _talloc_enable_leak_report
                0x0006491c                _talloc_append_string
                0x0006468c                __talloc_zero
                0x00064e2e                __talloc_zero_array
                0x00064e6a                __talloc_realloc_array
                0x000642ae                _talloc_report_depth_file
                0x00063f7e                _talloc_total_size
 .text          0x00065430     0x18cc build-newer-morphos/utils_url.o
                0x00066384                _url_nice
                0x0006694c                _url_get_components
                0x00065ef2                _url_scheme
                0x00065a84                _url_join
                0x00066112                _url_plq
                0x0006600e                _url_parent
                0x00066244                _url_leafname
                0x00065596                _url_host_is_ip_address
                0x00065554                _url_init
                0x00066b92                _url_reform_components
                0x0006671a                _url_compare
                0x00065f62                _url_canonical_root
                0x00065e0e                _url_host
                0x000665d6                _url_escape
                0x000661ce                _url_path
                0x000662de                _url_fragment
                0x00066cca                _url_destroy_components
                0x00065652                _url_normalize
 .text          0x00066cfc      0x11c build-newer-morphos/utils_useragent.o
                0x00066e02                _user_agent_string
 .text          0x00066e18      0x488 build-newer-morphos/utils_utf8.o
                0x00067040                _utf8_to_enc
                0x00066e74                _utf8_to_ucs4
                0x00066f96                _utf8_prev
                0x0006705c                _utf8_from_enc
                0x00066f10                _utf8_bounded_length
                0x00066ef6                _utf8_length
                0x00066f60                _utf8_char_byte_length
                0x00067012                _utf8_finalise
                0x00066ea6                _utf8_from_ucs4
                0x00066fd2                _utf8_next
 .text          0x000672a0      0x600 build-newer-morphos/utils_utils.o
                0x000674be                _is_dir
                0x00067456                _cnv_space2nbsp
                0x000673ac                _squash_whitespace
                0x00067372                _whitespace
                0x00067302                _strip
                0x00067584                _human_friendly_bytesize
                0x000676ce                _rfc1123_date
                0x000677c2                _strcasestr
                0x0006784c                _strndup
                0x00067810                _wallclock
                0x00067516                _regcomp_wrapper
 .text          0x000678a0     0x3398 /opt/netsurf/m68k-unknown-amigaos/env/lib/libjpeg.a(jdmarker.o)
                0x0006aa94                _jpeg_save_markers
                0x0006a9ce                _jinit_marker_reader
                0x0006a7ea                _jpeg_resync_to_restart
                0x0006abba                _jpeg_set_marker_processor
 .text          0x0006ac38     0x172c /opt/netsurf/m68k-unknown-amigaos/env/lib/libjpeg.a(jerror.o)
                0x0006c2d8                _jpeg_std_error
                0x0006be8e                _jpeg_std_message_table
 .text          0x0006c364      0x868 /opt/netsurf/m68k-unknown-amigaos/env/lib/libjpeg.a(jdapimin.o)
                0x0006c4ee                _jpeg_abort_decompress
                0x0006c8d6                _jpeg_consume_input
                0x0006c364                _jpeg_CreateDecompress
                0x0006ca42                _jpeg_has_multiple_scans
                0x0006caa0                _jpeg_finish_decompress
                0x0006c4da                _jpeg_destroy_decompress
                0x0006c822                _jpeg_read_header
                0x0006c9e4                _jpeg_input_complete
 .text          0x0006cbcc      0x684 /opt/netsurf/m68k-unknown-amigaos/env/lib/libjpeg.a(jdapistd.o)
                0x0006ce92                _jpeg_read_scanlines
                0x0006d0da                _jpeg_start_output
                0x0006cf98                _jpeg_read_raw_data
                0x0006d170                _jpeg_finish_output
                0x0006cbcc                _jpeg_start_decompress
 .text          0x0006d250      0x104 /opt/netsurf/m68k-unknown-amigaos/env/lib/libjpeg.a(jcomapi.o)
                0x0006d2ee                _jpeg_alloc_quant_table
                0x0006d250                _jpeg_abort
                0x0006d320                _jpeg_alloc_huff_table
                0x0006d2b8                _jpeg_destroy
 .text          0x0006d354      0x5bc /opt/netsurf/m68k-unknown-amigaos/env/lib/libjpeg.a(jutils.o)
                0x0006d598                _jpeg_natural_order6
                0x0006d668                _jpeg_natural_order5
                0x0006d890                _jcopy_sample_rows
                0x0006d354                _jpeg_natural_order
                0x0006d860                _jround_up
                0x0006d7f0                _jpeg_natural_order2
                0x0006d494                _jpeg_natural_order7
                0x0006d8ee                _jcopy_block_row
                0x0006d840                _jdiv_round_up
                0x0006d70c                _jpeg_natural_order4
                0x0006d78c                _jpeg_natural_order3
 .text          0x0006d910     0x15b8 /opt/netsurf/m68k-unknown-amigaos/env/lib/libjpeg.a(jmemmgr.o)
                0x0006ecbc                _jinit_memory_mgr
 .text          0x0006eec8     0x177c /opt/netsurf/m68k-unknown-amigaos/env/lib/libjpeg.a(jdinput.o)
                0x000705ca                _jinit_input_controller
                0x0006eec8                _jpeg_core_output_dimensions
 .text          0x00070644      0xd20 /opt/netsurf/m68k-unknown-amigaos/env/lib/libjpeg.a(jdmaster.o)
                0x00071258                _jpeg_new_colormap
                0x000707c6                _jpeg_calc_output_dimensions
                0x0007130a                _jinit_master_decompress
 .text          0x00071364       0x94 /opt/netsurf/m68k-unknown-amigaos/env/lib/libjpeg.a(jmemnobs.o)
                0x00071378                _jpeg_free_small
                0x000713b4                _jpeg_mem_available
                0x000713e4                _jpeg_mem_init
                0x000713a0                _jpeg_free_large
                0x000713c0                _jpeg_open_backing_store
                0x0007138c                _jpeg_get_large
                0x00071364                _jpeg_get_small
                0x000713ee                _jpeg_mem_term
 .text          0x000713f8     0x1294 /opt/netsurf/m68k-unknown-amigaos/env/lib/libjpeg.a(jquant1.o)
                0x00072592                _jinit_1pass_quantizer
 .text          0x0007268c     0x1d14 /opt/netsurf/m68k-unknown-amigaos/env/lib/libjpeg.a(jquant2.o)
                0x00074184                _jinit_2pass_quantizer
 .text          0x000743a0      0xa98 /opt/netsurf/m68k-unknown-amigaos/env/lib/libjpeg.a(jdmerge.o)
                0x00074d52                _jinit_merged_upsampler
 .text          0x00074e38      0xb98 /opt/netsurf/m68k-unknown-amigaos/env/lib/libjpeg.a(jdcolor.o)
                0x00075670                _jinit_color_deconverter
 .text          0x000759d0      0x730 /opt/netsurf/m68k-unknown-amigaos/env/lib/libjpeg.a(jdsample.o)
                0x00075e02                _jinit_upsampler
 .text          0x00076100      0x588 /opt/netsurf/m68k-unknown-amigaos/env/lib/libjpeg.a(jdpostct.o)
                0x00076568                _jinit_d_post_controller
 .text          0x00076688      0x940 /opt/netsurf/m68k-unknown-amigaos/env/lib/libjpeg.a(jddctmgr.o)
                0x00076f0c                _jinit_inverse_dct
 .text          0x00076fc8     0x17ac /opt/netsurf/m68k-unknown-amigaos/env/lib/libjpeg.a(jdarith.o)
                0x00078674                _jinit_arith_decoder
 .text          0x00078774     0x3088 /opt/netsurf/m68k-unknown-amigaos/env/lib/libjpeg.a(jdhuff.o)
                0x0007b6e0                _jinit_huff_decoder
 .text          0x0007b7fc     0x1450 /opt/netsurf/m68k-unknown-amigaos/env/lib/libjpeg.a(jdcoefct.o)
                0x0007ca74                _jinit_d_coef_controller
 .text          0x0007cc4c      0xad4 /opt/netsurf/m68k-unknown-amigaos/env/lib/libjpeg.a(jdmainct.o)
                0x0007d5a8                _jinit_d_main_controller
 .text          0x0007d720     0xc208 /opt/netsurf/m68k-unknown-amigaos/env/lib/libjpeg.a(jidctint.o)
                0x00085eac                _jpeg_idct_10x5
                0x00084f58                _jpeg_idct_14x7
                0x0007ee1c                _jpeg_idct_4x4
                0x00089372                _jpeg_idct_3x6
                0x0007e618                _jpeg_idct_6x6
                0x00083752                _jpeg_idct_16x16
                0x0007fb90                _jpeg_idct_10x10
                0x0007f0ea                _jpeg_idct_3x3
                0x0007ea46                _jpeg_idct_5x5
                0x0007dfea                _jpeg_idct_7x7
                0x000857ec                _jpeg_idct_12x6
                0x00089890                _jpeg_idct_1x2
                0x00086ea0                _jpeg_idct_2x1
                0x0008813a                _jpeg_idct_6x12
                0x00082c0c                _jpeg_idct_15x15
                0x00088d8a                _jpeg_idct_4x8
                0x0008697a                _jpeg_idct_6x3
                0x0007d720                _jpeg_idct_islow
                0x00080d28                _jpeg_idct_12x12
                0x00086cb2                _jpeg_idct_4x2
                0x0007f326                _jpeg_idct_2x2
                0x000896a4                _jpeg_idct_2x4
                0x000887ca                _jpeg_idct_5x10
                0x0007f464                _jpeg_idct_1x1
                0x0008648a                _jpeg_idct_8x4
                0x000878f8                _jpeg_idct_7x14
                0x00086f34                _jpeg_idct_8x16
                0x00084438                _jpeg_idct_16x8
                0x0008163e                _jpeg_idct_13x13
                0x00082164                _jpeg_idct_14x14
                0x0007f4c0                _jpeg_idct_9x9
                0x00080358                _jpeg_idct_11x11
 .text          0x00089928      0x768 /opt/netsurf/m68k-unknown-amigaos/env/lib/libjpeg.a(jidctfst.o)
                0x00089928                _jpeg_idct_ifast
 .text          0x0008a090      0x950 /opt/netsurf/m68k-unknown-amigaos/env/lib/libjpeg.a(jidctflt.o)
                0x0008a090                _jpeg_idct_float
 .text          0x0008a9e0      0x1c8 /opt/netsurf/m68k-unknown-amigaos/env/lib/libjpeg.a(jaricom.o)
                0x0008a9e0                _jpeg_aritab
 .text          0x0008aba8     0x3b54 /opt/netsurf/m68k-unknown-amigaos/env/lib/libz.a(inflate.o)
                0x0008e184                _inflateSync
                0x0008e0a6                _inflateGetHeader
                0x0008ac1c                _inflateResetKeep
                0x0008e588                _inflateUndermine
                0x0008af7e                _inflatePrime
                0x0008e62a                _inflateMark
                0x0008e3d4                _inflateCopy
                0x0008e5c4                _inflateValidate
                0x0008ae4c                _inflateInit2_
                0x0008df08                _inflateGetDictionary
                0x0008ad12                _inflateReset
                0x0008e380                _inflateSyncPoint
                0x0008ad64                _inflateReset2
                0x0008e6b6                _inflateCodesUsed
                0x0008dfbe                _inflateSetDictionary
                0x0008af5e                _inflateInit_
                0x0008bcc4                _inflate
                0x0008de8e                _inflateEnd
 .text          0x0008e6fc      0xc88 /opt/netsurf/m68k-unknown-amigaos/env/lib/libz.a(gzlib.o)
                0x0008f376                _gz_intmax
                0x0008eb6e                _gzopen
                0x0008efcc                _gztell64
                0x0008f106                _gzeof
                0x0008f05a                _gzoffset64
                0x0008efa8                _gzseek
                0x0008ebae                _gzdopen
                0x0008f17a                _gzerror
                0x0008ed32                _gzseek64
                0x0008eb8a                _gzopen64
                0x0008ec26                _gzbuffer
                0x0008ecac                _gzrewind
                0x0008f0ec                _gzoffset
                0x0008f204                _gzclearerr
                0x0008f042                _gztell
                0x0008f26e                _gz_error
 .text          0x0008f384       0x58 /opt/netsurf/m68k-unknown-amigaos/env/lib/libz.a(gzclose.o)
                0x0008f384                _gzclose
 .text          0x0008f3dc     0x113c /opt/netsurf/m68k-unknown-amigaos/env/lib/libz.a(gzread.o)
                0x0008fe66                _gzfread
                0x0008fff4                _gzgetc_
                0x000903d6                _gzdirect
                0x00090210                _gzgets
                0x0009042a                _gzclose_r
                0x0008fd8c                _gzread
                0x0008ff3e                _gzgetc
                0x00090026                _gzungetc
 .text          0x00090518      0x14c /opt/netsurf/m68k-unknown-amigaos/env/lib/libz.a(zutil.o)
                0x0009062e                _zcalloc
                0x0009058e                _z_errmsg
                0x000905bc                _zlibVersion
                0x000905ca                _zlibCompileFlags
                0x000905ee                _zError
                0x00090650                _zcfree
 .text          0x00090664     0x326c /opt/netsurf/m68k-unknown-amigaos/env/lib/libz.a(crc32.o)
                0x000938b4                _crc32_combine_op
                0x0009388e                _crc32_combine_gen64
                0x00093874                _crc32_combine
                0x00092fe4                _get_crc_table
                0x00093830                _crc32
                0x0009384c                _crc32_combine64
                0x000938a4                _crc32_combine_gen
                0x0009307a                _crc32_z
 .text          0x000938d0      0x628 /opt/netsurf/m68k-unknown-amigaos/env/lib/libz.a(adler32.o)
                0x000938d0                _adler32_z
                0x00093ec0                _adler32_combine
                0x00093d8e                _adler32
                0x00093edc                _adler32_combine64
 .text          0x00093ef8      0x748 /opt/netsurf/m68k-unknown-amigaos/env/lib/libz.a(inftrees.o)
                0x00093ef8                _inflate_copyright
                0x00094024                _inflate_table
 .text          0x00094640      0x7c4 /opt/netsurf/m68k-unknown-amigaos/env/lib/libz.a(inffast.o)
                0x00094690                _inflate_fast
 .text          0x00094e04     0x1040 /opt/netsurf/m68k-unknown-amigaos/env/lib/libz.a(gzwrite.o)
                0x00095b2a                _gzprintf
                0x00095b56                _gzflush
                0x00095d1e                _gzclose_w
                0x000955a4                _gzwrite
                0x00095860                _gzputs
                0x0009570a                _gzputc
                0x0009590e                _gzvprintf
                0x0009563e                _gzfwrite
                0x00095c04                _gzsetparams
 .text          0x00095e44     0x4d6c /opt/netsurf/m68k-unknown-amigaos/env/lib/libz.a(deflate.o)
                0x00096eea                _deflateSetHeader
                0x00096f82                _deflatePrime
                0x00097296                _deflateTune
                0x0009877e                _deflateCopy
                0x00096c82                _deflateResetKeep
                0x00095e44                _deflate_copyright
                0x00097070                _deflateParams
                0x0009648a                _deflateInit_
                0x0009691c                _deflateSetDictionary
                0x00096f30                _deflatePending
                0x00098656                _deflateEnd
                0x0009762c                _deflate
                0x00096bda                _deflateGetDictionary
                0x000964bc                _deflateInit2_
                0x000972ee                _deflateBound
                0x00096ebc                _deflateReset
 .text          0x0009abb0     0x3798 /opt/netsurf/m68k-unknown-amigaos/env/lib/libz.a(trees.o)
                0x0009b91e                __tr_init
                0x0009d454                __tr_flush_bits
                0x0009b1f4                __dist_code
                0x0009e21a                __tr_tally
                0x0009de9e                __tr_flush_block
                0x0009d466                __tr_align
                0x0009b3f4                __length_code
                0x0009d28a                __tr_stored_block
 .text          0x0009e348       0x94 lib/libmui-5.a(libmui.o)
                0x0009e348                _MUI_NewObject
                0x0009e3a8                _MUI_AllocAslRequestTags
                0x0009e3c0                _MUI_AslRequestTags
                0x0009e360                _MUI_MakeObject
                0x0009e378                _MUI_Request
 .text          0x0009e3dc       0xb4 /mnt/e/usr/local/amiga/m68k-amigaos/clib/extra/ns-lib/libasyncio.a(CloseAsync.o)
                0x0009e3dc                _CloseAsync
 .text          0x0009e490      0x178 /mnt/e/usr/local/amiga/m68k-amigaos/clib/extra/ns-lib/libasyncio.a(ReadAsync.o)
                0x0009e490                _ReadAsync
 .text          0x0009e608       0x6c /mnt/e/usr/local/amiga/m68k-amigaos/clib/extra/ns-lib/libasyncio.a(OpenAsync.o)
                0x0009e60e                _OpenAsync
 .text          0x0009e674      0x164 /mnt/e/usr/local/amiga/m68k-amigaos/clib/extra/ns-lib/libasyncio.a(WriteAsync.o)
                0x0009e674                _WriteAsync
 .text          0x0009e7d8      0x110 /mnt/e/usr/local/amiga/m68k-amigaos/clib/extra/ns-lib/libasyncio.a(WaitPacket.o)
                0x0009e7d8                _AS_WaitPacket
 .text          0x0009e8e8       0x44 /mnt/e/usr/local/amiga/m68k-amigaos/clib/extra/ns-lib/libasyncio.a(SendPacket.o)
                0x0009e8e8                _AS_SendPacket
 .text          0x0009e92c      0x330 /mnt/e/usr/local/amiga/m68k-amigaos/clib/extra/ns-lib/libasyncio.a(OpenAsyncFH.o)
                0x0009e92c                _AS_OpenAsyncFH
 .text          0x0009ec5c      0x288 /mnt/e/usr/local/amiga/m68k-amigaos/clib/extra/ns-lib/libxml2.a(SAX.o)
                0x0009ec5c                _initxmlDefaultSAXHandler
                0x0009ed54                _inithtmlDefaultSAXHandler
                0x0009ee14                _initdocbDefaultSAXHandler
 .text          0x0009eee4     0x1430 /mnt/e/usr/local/amiga/m68k-amigaos/clib/extra/ns-lib/libxml2.a(entities.o)
                0x0009f4b6                _xmlAddDtdEntity
                0x0009fcb0                _xmlEncodeEntitiesReentrant
                0x0009f708                _xmlGetDtdEntity
                0x0009f6b2                _xmlGetParameterEntity
                0x0009fe5a                _xmlFreeEntitiesTable
                0x0009f736                _xmlGetDocEntity
                0x0009fc98                _xmlEncodeAttributeEntities
                0x0009f398                _xmlGetPredefinedEntity
                0x0009fd12                _xmlEncodeSpecialChars
                0x000a0110                _xmlDumpEntityDecl
                0x0009f62a                _xmlNewEntity
                0x0009ff8c                _xmlCopyEntitiesTable
                0x000a02f8                _xmlDumpEntitiesTable
                0x0009fe34                _xmlCreateEntitiesTable
                0x0009f59a                _xmlAddDocEntity
 .text          0x000a0314     0x2bd8 /mnt/e/usr/local/amiga/m68k-amigaos/clib/extra/ns-lib/libxml2.a(encoding.o)
                0x000a189a                _xmlRegisterCharEncodingHandler
                0x000a1098                _xmlAddEncodingAlias
                0x000a1cdc                _xmlGetCharEncodingHandler
                0x000a100c                _xmlGetEncodingAlias
                0x000a217e                _xmlCharEncFirstLineInput
                0x000a1740                _xmlInitCharEncodingHandlers
                0x000a1fc6                _xmlCharEncFirstLineInt
                0x000a04fe                _isolat1ToUTF8
                0x000a2700                _xmlCharEncOutput
                0x000a0600                _UTF8Toisolat1
                0x000a2a1c                _xmlCharEncOutFunc
                0x000a121c                _xmlDelEncodingAlias
                0x000a160a                _xmlGetCharEncodingName
                0x000a2520                _xmlCharEncInFunc
                0x000a0f7c                _xmlCleanupEncodingAliases
                0x000a2110                _xmlCharEncFirstLine
                0x000a1aee                _xmlFindCharEncodingHandler
                0x000a2cc6                _xmlCharEncCloseFunc
                0x000a0df8                _xmlDetectCharEncoding
                0x000a2d96                _xmlByteConsumed
                0x000a1a22                _xmlCleanupCharEncodingHandlers
                0x000a13ba                _xmlParseCharEncoding
                0x000a1952                _xmlNewCharEncodingHandler
                0x000a2356                _xmlCharEncInput
 .text          0x000a2eec     0x15a8 /mnt/e/usr/local/amiga/m68k-amigaos/clib/extra/ns-lib/libxml2.a(error.o)
                0x000a395c                _xmlParserWarning
                0x000a3d22                _xmlGetLastError
                0x000a2f1e                _initGenericErrorDefaultFunc
                0x000a4472                _xmlCtxtResetLastError
                0x000a3d3a                _xmlResetError
                0x000a2f6a                _xmlSetStructuredErrorFunc
                0x000a36ee                _xmlCopyError
                0x000a4396                ___xmlSimpleError
                0x000a3824                _xmlParserError
                0x000a443a                _xmlResetLastError
                0x000a3a9c                _xmlParserValidityError
                0x000a2f9c                _xmlParserPrintFileInfo
                0x000a3138                _xmlParserPrintFileContext
                0x000a2eec                _xmlGenericErrorDefaultFunc
                0x000a3c0a                _xmlParserValidityWarning
                0x000a4454                _xmlCtxtGetLastError
                0x000a2f40                _xmlSetGenericErrorFunc
                0x000a3e42                ___xmlRaiseError
 .text          0x000a4494     0x27a8 /mnt/e/usr/local/amiga/m68k-amigaos/clib/extra/ns-lib/libxml2.a(parserInternals.o)
                0x000a6034                _xmlNewInputFromFile
                0x000a5840                _xmlSwitchEncoding
                0x000a61dc                _xmlInitParserCtxt
                0x000a5442                _xmlCopyCharMultiByte
                0x000a6186                _xmlInitNodeInfoSeq
                0x000a45e4                _xmlErrMemory
                0x000a5bdc                _xmlNewInputStream
                0x000a6564                _xmlFreeParserCtxt
                0x000a5f40                _xmlNewStringInputStream
                0x000a693e                _xmlClearNodeInfoSeq
                0x000a5202                _xmlStringCurrentChar
                0x000a6bfe                _xmlSubstituteEntitiesDefault
                0x000a4810                _xmlIsLetter
                0x000a4ae6                _xmlNextChar
                0x000a6bd2                _xmlPedanticParserDefault
                0x000a6970                _xmlClearParserCtxt
                0x000a6be8                _xmlLineNumbersDefault
                0x000a5acc                _xmlSwitchInputEncoding
                0x000a450c                _xmlCheckVersion
                0x000a48a8                _xmlParserInputGrow
                0x000a4ea6                _xmlCurrentChar
                0x000a5ae8                _xmlSwitchToEncoding
                0x000a54e4                _xmlCopyChar
                0x000a6a1c                _xmlParserFindNodeInfo
                0x000a6a8a                _xmlParserAddNodeInfo
                0x000a5dae                _xmlNewEntityInputStream
                0x000a468a                ___xmlErrEncoding
                0x000a6994                _xmlParserFindNodeInfoIndex
                0x000a489e                _xmlParserInputRead
                0x000a5b00                _xmlFreeInputStream
                0x000a495e                _xmlParserInputShrink
                0x000a68e8                _xmlNewParserCtxt
                0x000a5c5a                _xmlNewIOInputStream
                0x000a6c14                _xmlKeepBlanksDefault
 .text          0x000a6c3c    0x17828 /mnt/e/usr/local/amiga/m68k-amigaos/clib/extra/ns-lib/libxml2.a(parser.o)
                0x000a988a                _xmlParsePubidLiteral
                0x000b1d6c                _xmlParseEndTag
                0x000b87d6                _xmlSetupParserForBuffer
                0x000b1f06                _xmlParseAttribute
                0x000b847e                _xmlSAXParseDTD
                0x000b3232                _xmlParseElementDecl
                0x000b39f2                _xmlParseEnumeratedType
                0x000b1d7e                _xmlParseVersionInfo
                0x000bb1c8                _xmlParseContent
                0x000b4be2                _xmlParsePI
                0x000be06e                _xmlReadMemory
                0x000b754c                _xmlParseXMLDecl
                0x000a86ac                _inputPop
                0x000b8798                _xmlCreateEntityParserCtxt
                0x000a9e66                _xmlParseEncodingDecl
                0x000ad91a                _xmlStringLenDecodeEntities
                0x000ad5ac                _xmlParsePITarget
                0x000a7f34                _xmlHasFeature
                0x000aeb2e                _xmlParseEntityRef
                0x000bbe34                _xmlParseExtParsedEnt
                0x000b020e                _xmlSkipBlankChars
                0x000a9c66                _xmlParseEncName
                0x000bd74a                _xmlParseFile
                0x000bccc6                _xmlSAXParseMemory
                0x000bc552                _xmlSetEntityReferenceFunc
                0x000aa13a                _xmlParseTextDecl
                0x000bccfc                _xmlParseMemory
                0x000b3848                _xmlParseNotationType
                0x000a9b74                _xmlParseVersionNum
                0x000b8106                _xmlStopParser
                0x000b4452                _xmlParseAttributeListDecl
                0x000b885e                _xmlCreateMemoryParserCtxt
                0x000a87da                _nodePop
                0x000b8254                _xmlIOParseDTD
                0x000b8142                _xmlCreateIOParserCtxt
                0x000bdf20                _xmlCtxtUseOptions
                0x000bcc22                _xmlSAXParseMemoryWithData
                0x000be034                _xmlReadFile
                0x000bd71c                _xmlSAXParseFile
                0x000bd75c                _xmlSAXParseEntity
                0x000bacf4                _xmlParseChunk
                0x000a8140                _xmlCheckLanguageID
                0x000a8820                _namePush
                0x000bcd12                _xmlCleanupParser
                0x000ab0b4                _xmlParseComment
                0x000a89c8                _xmlPopInput
                0x000b867e                _xmlParseDTD
                0x000b3018                _xmlParseElementContentDecl
                0x000bc52a                _xmlCreateDocParserCtxt
                0x000b3b18                _xmlParseAttributeType
                0x000bc562                _xmlInitParser
                0x000bb8be                _xmlParseCtxtExternalEntity
                0x000b7ed4                _xmlCreatePushParserCtxt
                0x000bcd6a                _xmlCtxtReset
                0x000b7956                _xmlParseMisc
                0x000b01e8                _xmlParseAttValue
                0x000be33e                _xmlCtxtReadFd
                0x000a8896                _namePop
                0x000bd59e                _xmlCreateFileParserCtxt
                0x000a8f3a                _xmlSplitQName
                0x000b2ba8                _xmlParseElementChildrenContentDecl
                0x000be0a4                _xmlReadFd
                0x000b56d6                _xmlParseDocTypeDecl
                0x000bcb7c                _xmlSAXUserParseMemory
                0x000aa426                _xmlParserHandlePEReference
                0x000bdb46                _xmlParseInNodeContext
                0x000a8624                _inputPush
                0x000b5380                _xmlParseExternalID
                0x000bcace                _xmlSAXParseDoc
                0x000aaae2                _xmlParseCDSect
                0x000bd736                _xmlRecoverFile
                0x000bd4fa                _xmlCreateURLParserCtxt
                0x000ae6ac                _xmlStringDecodeEntities
                0x000a872e                _nodePush
                0x000bc602                _xmlParseDocument
                0x000b363c                _xmlParseEnumerationType
                0x000ae90c                _xmlParsePEReference
                0x000aca26                _xmlParseName
                0x000be1e4                _xmlCtxtReadDoc
                0x000bcb66                _xmlRecoverDoc
                0x000bd7f0                _xmlParseBalancedChunkMemoryRecover
                0x000b209a                _xmlParseStartTag
                0x000b407e                _xmlParseDefaultDecl
                0x000be24c                _xmlCtxtReadFile
                0x000b5a06                _xmlParseEntityDecl
                0x000b6f38                _xmlParseExternalSubset
                0x000af246                _xmlParseCharRef
                0x000bdff2                _xmlReadDoc
                0x000bd64c                _xmlSAXParseFileWithData
                0x000bcb52                _xmlParseDoc
                0x000be2b4                _xmlCtxtReadMemory
                0x000ac6c2                _xmlParseNmtoken
                0x000aee2a                _xmlParseEntityValue
                0x000be3c8                _xmlCtxtReadIO
                0x000bd5b0                _xmlSAXUserParseFile
                0x000be13a                _xmlReadIO
                0x000bb866                _xmlParseExternalEntity
                0x000bd03e                _xmlCtxtResetPush
                0x000bcce4                _xmlRecoverMemory
                0x000ac318                _xmlParseSystemLiteral
                0x000b649a                _xmlParseMarkupDecl
                0x000b723e                _xmlParseSDDecl
                0x000b8cfa                _xmlParseReference
                0x000abb1e                _xmlParseCharData
                0x000bd7de                _xmlParseEntity
                0x000b623e                _xmlParseNotationDecl
                0x000b2bf2                _xmlParseElementMixedContentDecl
                0x000bc12c                _xmlParseElement
                0x000a8b92                _xmlPushInput
                0x000bdb20                _xmlParseBalancedChunkMemory
 .text          0x000be464     0xa308 /mnt/e/usr/local/amiga/m68k-amigaos/clib/extra/ns-lib/libxml2.a(tree.o)
                0x000c311e                _xmlNodeSetBase
                0x000c32ba                _xmlGetNsProp
                0x000c2fca                _xmlSetNsProp
                0x000c4228                _xmlNewDocNode
                0x000c27b6                _xmlSearchNsByHref
                0x000c3f50                _xmlNodeSetContent
                0x000c32ec                _xmlNodeGetSpacePreserve
                0x000c0a90                _xmlSetTreeDoc
                0x000c0bce                _xmlFirstElementChild
                0x000c5dbe                _xmlBufferGrow
                0x000c226c                _xmlNodeBufGetContent
                0x000c0b58                _xmlGetLastChild
                0x000c6232                _xmlBufferCCat
                0x000bf956                _xmlNewNs
                0x000c42bc                _xmlNewChild
                0x000bf44a                _xmlValidateNMToken
                0x000c1720                _xmlReplaceNode
                0x000c5850                _xmlUnsetProp
                0x000c0c5e                _xmlPreviousElementSibling
                0x000c0a72                _xmlNewDocComment
                0x000c1fd8                _xmlNodeSetName
                0x000c0ca0                _xmlNextElementSibling
                0x000c5550                _xmlHasProp
                0x000c0b78                _xmlChildElementCount
                0x000c2434                _xmlGetNsList
                0x000c4076                _xmlAddPrevSibling
                0x000c5602                _xmlGetProp
                0x000c645c                _xmlSetCompressMode
                0x000c72a0                _xmlDOMWrapCloneNode
                0x000c5016                _xmlStringLenGetNodeList
                0x000c44b8                _xmlNewDocProp
                0x000c4bc6                _xmlDocCopyNode
                0x000c5ee8                _xmlBufferResize
                0x000c5000                _xmlDocCopyNodeList
                0x000c5ed2                _xmlBufferLength
                0x000c6306                _xmlBufferWriteQuotedString
                0x000c1470                _xmlRemoveProp
                0x000c58ce                _xmlSetProp
                0x000c01bc                _xmlNewNode
                0x000c095c                _xmlNewComment
                0x000c5b94                _xmlBufferDetach
                0x000bfbde                _xmlCreateIntSubset
                0x000be476                _xmlStringText
                0x000c606e                _xmlBufferAdd
                0x000c5ebe                _xmlBufferContent
                0x000be46c                _xmlStringTextNoenc
                0x000c4382                _xmlNewDocRawNode
                0x000c0198                _xmlNewPI
                0x000bf0a4                _xmlValidateName
                0x000c1fac                _xmlDocGetRootElement
                0x000be700                _xmlSplitQName3
                0x000c033a                _xmlNewText
                0x000c4e8e                _xmlCopyDoc
                0x000c4be0                _xmlCopyNode
                0x000c1210                _xmlFreeNodeList
                0x000c5820                _xmlGetNoNsProp
                0x000bfb92                _xmlGetIntSubset
                0x000c4bf8                _xmlCopyDtd
                0x000c104c                _xmlFreeDoc
                0x000bffb8                _xmlNodeListGetRawString
                0x000c595e                _xmlNodeIsText
                0x000c3b78                _xmlStringGetNodeList
                0x000be464                _xmlStringComment
                0x000c0ce2                _xmlUnlinkNode
                0x000c31f6                _xmlNodeSetSpacePreserve
                0x000c564c                _xmlNodeGetBase
                0x000c5e6a                _xmlBufferDump
                0x000c5bba                _xmlBufferCreateStatic
                0x000c337c                _xmlNodeGetLang
                0x000c597e                _xmlIsBlankNode
                0x000c5cee                _xmlBufferShrink
                0x000c0b16                _xmlSetListDoc
                0x000c0928                _xmlNewDocTextLen
                0x000c5422                _xmlNodeSetContentLen
                0x000c3272                _xmlNodeSetLang
                0x000c47de                _xmlCopyPropList
                0x000c4194                _xmlNewDocNodeEatName
                0x000c36b2                _xmlTextMerge
                0x000c6112                _xmlBufferAddHead
                0x000c09ee                _xmlNewCDataBlock
                0x000c5c14                _xmlBufferSetAllocationScheme
                0x000c3708                _xmlAddChildList
                0x000c1848                _xmlCopyNamespace
                0x000c33c4                _xmlHasNsProp
                0x000c25c2                _xmlSearchNs
                0x000c023e                _xmlNewNodeEatName
                0x000c43f2                _xmlNewTextChild
                0x000c0c16                _xmlLastElementChild
                0x000c13be                _xmlFreeProp
                0x000bfa70                _xmlSetNs
                0x000bfdb2                _xmlNewDoc
                0x000c066c                _xmlNewNsProp
                0x000c209a                _xmlBufGetNodeContent
                0x000c0692                _xmlNewProp
                0x000c47c8                _xmlCopyProp
                0x000bf8ca                _xmlFreeNs
                0x000be5b0                _xmlBuildQName
                0x000c03bc                _xmlNewDocText
                0x000c62d8                _xmlBufferWriteChar
                0x000c6420                _xmlSetDocCompressMode
                0x000c06ca                _xmlNewReference
                0x000c19de                _xmlGetLineNo
                0x000c5c4e                _xmlBufferFree
                0x000c1514                _xmlFreeNode
                0x000c2332                _xmlNodeGetContent
                0x000be760                _xmlValidateNCName
                0x000c39c8                _xmlDocSetRootElement
                0x000c1a56                _xmlGetNodePath
                0x000c66f8                _xmlDOMWrapFreeCtxt
                0x000c644e                _xmlGetCompressMode
                0x000c14e4                _xmlFreePropList
                0x000c5ca4                _xmlBufferEmpty
                0x000c3a54                _xmlAddNextSibling
                0x000c6dec                _xmlDOMWrapReconcileNamespaces
                0x000c68b2                _xmlDOMWrapRemoveNode
                0x000c61fe                _xmlBufferCat
                0x000c4fec                _xmlCopyNodeList
                0x000c358e                _xmlNodeAddContentLen
                0x000c07d2                _xmlNewCharRef
                0x000c5a90                _xmlBufferCreate
                0x000c0644                _xmlNewNsPropEatName
                0x000c0eb6                _xmlFreeDtd
                0x000c5b06                _xmlBufferCreateSize
                0x000c66c6                _xmlDOMWrapNewCtxt
                0x000c08a2                _xmlNewTextLen
                0x000be654                _xmlSplitQName2
                0x000c367c                _xmlNodeAddContent
                0x000c2a92                _xmlReconciliateNs
                0x000bf89c                _xmlSetBufferAllocationScheme
                0x000c1874                _xmlCopyNamespaceList
                0x000bfe6c                _xmlNodeListGetString
                0x000bface                _xmlNewDtd
                0x000bf8bc                _xmlGetBufferAllocationScheme
                0x000c7a6c                _xmlDOMWrapAdoptNode
                0x000c38d2                _xmlAddSibling
                0x000c640a                _xmlGetDocCompressMode
                0x000c00dc                _xmlNewDocPI
                0x000c02c8                _xmlNewDocFragment
                0x000beae8                _xmlValidateQName
                0x000c59da                _xmlTextConcat
                0x000bfa92                _xmlFreeNsList
                0x000c5888                _xmlUnsetNsProp
                0x000c33e2                _xmlAddChild
                0x000c62b6                _xmlBufferWriteCHAR
 .text          0x000c876c     0x1154 /mnt/e/usr/local/amiga/m68k-amigaos/clib/extra/ns-lib/libxml2.a(hash.o)
                0x000c889e                _xmlHashCreateDict
                0x000c8dd6                _xmlHashUpdateEntry
                0x000c920c                _xmlHashAddEntry
                0x000c98a0                _xmlHashRemoveEntry2
                0x000c970e                _xmlHashSize
                0x000c8df6                _xmlHashAddEntry3
                0x000c91ee                _xmlHashAddEntry2
                0x000c8ae2                _xmlHashLookup
                0x000c9412                _xmlHashQLookup2
                0x000c9472                _xmlHashScanFull
                0x000c955a                _xmlHashScanFull3
                0x000c8ac8                _xmlHashLookup2
                0x000c9436                _xmlHashQLookup
                0x000c9724                _xmlHashRemoveEntry3
                0x000c9884                _xmlHashRemoveEntry
                0x000c9228                _xmlHashQLookup3
                0x000c88d6                _xmlHashFree
                0x000c9636                _xmlHashScan3
                0x000c965a                _xmlHashCopy
                0x000c881e                _xmlHashCreate
                0x000c8db4                _xmlHashUpdateEntry2
                0x000c8afa                _xmlHashUpdateEntry3
                0x000c89fc                _xmlHashLookup3
                0x000c9536                _xmlHashScan
 .text          0x000c98c0      0x818 /mnt/e/usr/local/amiga/m68k-amigaos/clib/extra/ns-lib/libxml2.a(list.o)
                0x000c9dc2                _xmlListEnd
                0x000c9a7e                _xmlListCreate
                0x000c9dac                _xmlListFront
                0x000c9e00                _xmlListPopFront
                0x000c9f98                _xmlListReverseWalk
                0x000c9eae                _xmlListPushBack
                0x000ca070                _xmlListMerge
                0x000c9ce2                _xmlListRemoveFirst
                0x000c9f56                _xmlListWalk
                0x000c9d4e                _xmlListRemoveAll
                0x000c9d18                _xmlListRemoveLast
                0x000ca092                _xmlListSort
                0x000c9b52                _xmlListReverseSearch
                0x000ca02c                _xmlListDup
                0x000c9d90                _xmlListEmpty
                0x000c9e28                _xmlListPopBack
                0x000c9f22                _xmlListReverse
                0x000c9c12                _xmlListAppend
                0x000c9f0c                _xmlLinkGetData
                0x000c9dda                _xmlListSize
                0x000c9cb4                _xmlListDelete
                0x000c9e54                _xmlListPushFront
                0x000c9b28                _xmlListSearch
                0x000c9c7e                _xmlListClear
                0x000c9ba2                _xmlListInsert
                0x000c9fde                _xmlListCopy
 .text          0x000ca0d8     0x35d8 /mnt/e/usr/local/amiga/m68k-amigaos/clib/extra/ns-lib/libxml2.a(xmlIO.o)
                0x000ccdb4                _xmlOutputBufferWriteEscape
                0x000cb23a                _xmlIOHTTPRead
                0x000ca8d6                _xmlPopInputCallbacks
                0x000cba5e                _xmlParserInputBufferCreateStatic
                0x000cb348                _xmlRegisterOutputCallbacks
                0x000cc952                _xmlOutputBufferWrite
                0x000cbbc6                _xmlParserInputBufferPush
                0x000cb976                _xmlOutputBufferGetContent
                0x000cb39c                _xmlRegisterDefaultInputCallbacks
                0x000cb91e                _xmlOutputBufferCreateIO
                0x000cb2f4                _xmlRegisterInputCallbacks
                0x000cb886                _xmlParserInputBufferCreateFile
                0x000cb8d2                _xmlOutputBufferCreateFile
                0x000cc4b0                _xmlIOHTTPOpenW
                0x000cbe64                _xmlOutputBufferFlush
                0x000cd038                _xmlOutputBufferWriteString
                0x000cbf72                _xmlOutputBufferClose
                0x000cd614                _xmlGetExternalEntityLoader
                0x000cb616                _xmlAllocOutputBuffer
                0x000cb48e                _xmlAllocParserInputBuffer
                0x000cb566                _xmlAllocOutputBufferInternal
                0x000cb226                _xmlIOHTTPOpen
                0x000cac54                _xmlFileRead
                0x000cb280                _xmlIOFTPMatch
                0x000cb9f6                _xmlParserInputBufferCreateMem
                0x000ca9b4                _xmlNop
                0x000ca96c                _xmlCheckFilename
                0x000cd084                _xmlParserGetDirectory
                0x000cb998                _xmlOutputBufferGetSize
                0x000ca528                ___xmlIOErr
                0x000cbb8a                _xmlParserInputBufferCreateFilenameDefault
                0x000cd63c                _xmlLoadExternalEntity
                0x000cb9ba                _xmlParserInputBufferCreateFd
                0x000cc67e                ___xmlOutputBufferCreateFilename
                0x000cb2a6                _xmlIOFTPOpen
                0x000cad1e                _xmlFileClose
                0x000cb956                _xmlOutputBufferCreateBuffer
                0x000cb2b8                _xmlIOFTPRead
                0x000ca91e                _xmlCleanupOutputCallbacks
                0x000cd55a                _xmlNoNetExternalEntityLoader
                0x000cbcb6                _xmlParserInputBufferGrow
                0x000cbe24                _xmlParserInputBufferRead
                0x000cb40c                _xmlRegisterDefaultOutputCallbacks
                0x000ca7d2                ___xmlLoaderErr
                0x000cb85c                _xmlParserInputBufferCreateFilename
                0x000ca888                _xmlCleanupInputCallbacks
                0x000cd1aa                _xmlCheckHTTPInput
                0x000cb2e2                _xmlIOFTPClose
                0x000cbba8                _xmlOutputBufferCreateFilenameDefault
                0x000cb452                _xmlRegisterHTTPPostCallbacks
                0x000cb264                _xmlIOHTTPClose
                0x000cab64                _xmlFileOpen
                0x000cd604                _xmlSetExternalEntityLoader
                0x000caa76                _xmlFileMatch
                0x000cb75c                ___xmlParserInputBufferCreateFilename
                0x000cb6d8                _xmlFreeParserInputBuffer
                0x000ca876                _xmlNormalizeWindowsPath
                0x000cbb52                _xmlParserInputBufferCreateIO
                0x000cc90e                _xmlOutputBufferCreateFilename
                0x000cb200                _xmlIOHTTPMatch
                0x000cbb1a                _xmlOutputBufferCreateFd
 .text          0x000cd6b0      0xb20 /mnt/e/usr/local/amiga/m68k-amigaos/clib/extra/ns-lib/libxml2.a(xmlmemory.o)
                0x000cd96e                _xmlMemDisplay
                0x000cdbf2                _xmlMemoryStrdup
                0x000ce028                _xmlMemRealloc
                0x000cd6fa                _xmlMemoryDump
                0x000cd8f2                _xmlMemDisplayLast
                0x000cd792                _xmlMemFree
                0x000ce176                _xmlGcMemGet
                0x000cd894                _xmlMemUsed
                0x000ce11a                _xmlGcMemSetup
                0x000ce0d0                _xmlMemGet
                0x000cd6da                _xmlMallocBreakpoint
                0x000cda46                _xmlInitMemory
                0x000ce058                _xmlCleanupMemory
                0x000cdd4c                _xmlMallocLoc
                0x000ce042                _xmlMemMalloc
                0x000cde78                _xmlReallocLoc
                0x000cd9f4                _xmlMemShow
                0x000ce080                _xmlMemSetup
                0x000cdad0                _xmlMemStrdupLoc
                0x000cd8a2                _xmlMemBlocks
                0x000cdc40                _xmlMallocAtomicLoc
 .text          0x000ce1d0     0x3790 /mnt/e/usr/local/amiga/m68k-amigaos/clib/extra/ns-lib/libxml2.a(uri.o)
                0x000cf512                _xmlNormalizeURIPath
                0x000d0996                _xmlParseURI
                0x000d18d2                _xmlPathToURI
                0x000d0936                _xmlParseURIReference
                0x000ce7fe                _xmlCreateURI
                0x000d09ea                _xmlURIEscapeStr
                0x000d0bda                _xmlURIEscape
                0x000ce6ce                _xmlFreeURI
                0x000cf4dc                _xmlPrintURI
                0x000ce8d4                _xmlSaveUri
                0x000d094a                _xmlParseURIRaw
                0x000d1802                _xmlCanonicPath
                0x000d13fc                _xmlBuildRelativeURI
                0x000d0f26                _xmlBuildURI
                0x000cf748                _xmlURIUnescapeString
 .text          0x000d1960     0x8644 /mnt/e/usr/local/amiga/m68k-amigaos/clib/extra/ns-lib/libxml2.a(valid.o)
                0x000d52e0                _xmlValidateNmtokenValue
                0x000d4570                _xmlRemoveID
                0x000d9648                _xmlValidateDtd
                0x000d5a90                _xmlValidateNotationDecl
                0x000d5a9a                _xmlValidateAttributeValue
                0x000d7ea4                _xmlValidatePushCData
                0x000d6324                _xmlValidateAttributeDecl
                0x000d9d74                _xmlValidGetValidElements
                0x000d4ab2                _xmlGetRefs
                0x000d21ec                _xmlFreeValidCtxt
                0x000d9162                _xmlValidateElement
                0x000d4b60                _xmlGetDtdQElementDesc
                0x000d842e                _xmlValidateOneElement
                0x000d5a7e                _xmlValidateNmtokensValue
                0x000d7fbe                _xmlValidatePopElement
                0x000d4954                _xmlIsRef
                0x000d40b2                _xmlDumpNotationTable
                0x000d3b1e                _xmlDumpAttributeDecl
                0x000d3fc8                _xmlCopyNotationTable
                0x000d4bb4                _xmlGetDtdNotationDesc
                0x000d419e                _xmlAddID
                0x000d3d3c                _xmlDumpAttributeTable
                0x000d4000                _xmlDumpNotationDecl
                0x000d2f52                _xmlAddElementDecl
                0x000d32f0                _xmlFreeElementTable
                0x000d3940                _xmlFreeAttributeTable
                0x000d45fa                _xmlGetID
                0x000d55b6                _xmlAddAttributeDecl
                0x000d5118                _xmlValidateNameValue
                0x000d6012                _xmlValidNormalizeAttributeValue
                0x000d42ee                _xmlGetDtdAttrDesc
                0x000d9982                _xmlValidateDtdFinal
                0x000d2720                _xmlFreeElementContent
                0x000d4396                _xmlIsID
                0x000d294c                _xmlSprintfElementContent
                0x000d5e34                _xmlValidCtxtNormalizeAttributeValue
                0x000d7274                _xmlValidateOneNamespace
                0x000d4c6e                _xmlIsMixedElement
                0x000d4adc                _xmlGetDtdElementDesc
                0x000d9ab0                _xmlValidateDocument
                0x000d525a                _xmlValidateNamesValue
                0x000d3634                _xmlFreeEnumeration
                0x000d35e0                _xmlCreateEnumeration
                0x000d6a20                _xmlValidateOneAttribute
                0x000d3e1e                _xmlAddNotationDecl
                0x000d2c68                _xmlValidBuildContentModel
                0x000d21b0                _xmlNewValidCtxt
                0x000d3f26                _xmlFreeNotationTable
                0x000d903c                _xmlValidateRoot
                0x000d6626                _xmlValidateElementDecl
                0x000d35ba                _xmlDumpElementTable
                0x000d42d8                _xmlFreeIDTable
                0x000d2410                _xmlNewElementContent
                0x000d493e                _xmlFreeRefTable
                0x000d49fe                _xmlRemoveRef
                0x000d367c                _xmlCopyEnumeration
                0x000d341c                _xmlDumpElementDecl
                0x000d4766                _xmlAddRef
                0x000d295a                _xmlSnprintfElementContent
                0x000d2426                _xmlCopyDocElementContent
                0x000d4b88                _xmlGetDtdQAttrDesc
                0x000d7a8a                _xmlValidatePushElement
                0x000d4bf6                _xmlValidateNotationUse
                0x000d95e2                _xmlValidateDocumentFinal
                0x000d9c72                _xmlValidGetPotentialChildren
                0x000d33b4                _xmlCopyElementTable
                0x000d3a2c                _xmlCopyAttributeTable
                0x000d261a                _xmlFreeDocElementContent
                0x000d22b4                _xmlNewDocElementContent
                0x000d2608                _xmlCopyElementContent
 .text          0x000d9fa4      0x1f0 /mnt/e/usr/local/amiga/m68k-amigaos/clib/extra/ns-lib/libxml2.a(xlink.o)
                0x000d9fa4                _xlinkGetDefaultHandler
                0x000d9fc2                _xlinkGetDefaultDetect
                0x000da06c                _xlinkIsLink
                0x000d9fb2                _xlinkSetDefaultHandler
                0x000d9fd0                _xlinkSetDefaultDetect
 .text          0x000da194     0xf714 /mnt/e/usr/local/amiga/m68k-amigaos/clib/extra/ns-lib/libxml2.a(HTMLparser.o)
                0x000e96f6                _htmlCtxtReadMemory
                0x000e8bd0                _htmlParseDoc
                0x000e2928                _htmlNewDoc
                0x000e980a                _htmlCtxtReadIO
                0x000e8d6a                _htmlHandleOmittedElem
                0x000e1ce4                _htmlTagLookup
                0x000e9578                _htmlReadIO
                0x000e6b5a                _htmlParseDocument
                0x000e893e                _htmlCreatePushParserCtxt
                0x000e2f8a                _htmlParseCharRef
                0x000e8f42                _htmlCtxtReset
                0x000e947a                _htmlReadMemory
                0x000e1c6a                _htmlInitAutoClose
                0x000e8d54                _htmlParseFile
                0x000e5d64                _htmlParseElement
                0x000e77da                _htmlParseChunk
                0x000e2488                _htmlEncodeEntities
                0x000e6b0e                ___htmlParseContent
                0x000e8e0a                _htmlAttrAllowed
                0x000e9400                _htmlReadDoc
                0x000e8dcc                _htmlElementStatusHere
                0x000e323c                _htmlParseEntityRef
                0x000e9622                _htmlCtxtReadDoc
                0x000e94de                _htmlReadFd
                0x000e8cf4                _htmlSAXParseFile
                0x000e8b50                _htmlSAXParseDoc
                0x000e6f80                _htmlNewParserCtxt
                0x000e1ebe                _htmlAutoCloseTag
                0x000e225c                _htmlEntityLookup
                0x000e22a0                _htmlEntityValueLookup
                0x000e968c                _htmlCtxtReadFile
                0x000e9446                _htmlReadFile
                0x000e2810                _htmlNewDocNoDtD
                0x000e7180                _htmlCreateMemoryParserCtxt
                0x000e1f2e                _htmlIsAutoClosed
                0x000e220c                _htmlIsScriptAttribute
                0x000e8d80                _htmlElementAllowedHere
                0x000e8eac                _htmlNodeStatus
                0x000e6f2c                _htmlFreeParserCtxt
                0x000e9204                _htmlCtxtUseOptions
                0x000e9782                _htmlCtxtReadFd
                0x000e22e6                _UTF8ToHtml
                0x000e8c00                _htmlCreateFileParserCtxt
 .text          0x000e98a8     0x16a8 /mnt/e/usr/local/amiga/m68k-amigaos/clib/extra/ns-lib/libxml2.a(HTMLtree.o)
                0x000eacaa                _htmlDocDump
                0x000ead7e                _htmlSaveFile
                0x000ea832                _htmlDocContentDumpFormatOutput
                0x000ea93a                _htmlDocContentDumpOutput
                0x000eaf34                _htmlSaveFileEnc
                0x000eaaa4                _htmlDocDumpMemory
                0x000eae48                _htmlSaveFileFormat
                0x000e9bb0                _htmlSetMetaEncoding
                0x000e9e82                _htmlIsBooleanAttr
                0x000eaac0                _htmlNodeDumpFileFormat
                0x000eaba0                _htmlNodeDump
                0x000e9978                _htmlGetMetaEncoding
                0x000ea24e                _htmlNodeDumpFormatOutput
                0x000eab64                _htmlNodeDumpFile
                0x000ea962                _htmlDocDumpMemoryFormat
                0x000eac8a                _htmlNodeDumpOutput
 .text          0x000eaf50     0x55d0 /mnt/e/usr/local/amiga/m68k-amigaos/clib/extra/ns-lib/libxml2.a(debugXML.o)
                0x000edd44                _xmlDebugCheckDocument
                0x000edca2                _xmlDebugDumpDTD
                0x000ede3a                _xmlLsOneNode
                0x000ee9bc                _xmlShellPwd
                0x000ee7b2                _xmlShellValidate
                0x000ee302                _xmlShellList
                0x000ee614                _xmlShellWrite
                0x000edd8e                _xmlLsCountNode
                0x000ee426                _xmlShellDir
                0x000edb2e                _xmlDebugDumpOneNode
                0x000ed914                _xmlDebugDumpAttr
                0x000edaf2                _xmlDebugDumpAttrList
                0x000edbb0                _xmlDebugDumpNodeList
                0x000ed9ca                _xmlDebugDumpEntities
                0x000edc3c                _xmlDebugDumpDocument
                0x000edb6a                _xmlDebugDumpNode
                0x000ee09c                _xmlBoolToText
                0x000ee14c                _xmlShellPrintXPathError
                0x000ee84a                _xmlShellDu
                0x000ed84e                _xmlDebugDumpString
                0x000edbf6                _xmlDebugDumpDocumentHead
                0x000ee39e                _xmlShellBase
                0x000ee2e8                _xmlShellPrintNode
                0x000ef408                _xmlShell
                0x000ee716                _xmlShellSave
                0x000ee544                _xmlShellLoad
                0x000ee49c                _xmlShellCat
                0x000ee2fa                _xmlShellPrintXPathResult
 .text          0x000f0520    0x1292c /mnt/e/usr/local/amiga/m68k-amigaos/clib/extra/ns-lib/libxml2.a(xpath.o)
                0x000f566a                _xmlXPathHasSameNodes
                0x000f3de4                _xmlXPathCastBooleanToString
                0x000f7642                _xmlXPathNextSelf
                0x000f877e                _xmlXPathStringFunction
                0x000f785a                _xmlXPathNextDescendantOrSelf
                0x000f3a00                _xmlXPathNewCString
                0x000f3e68                _valuePop
                0x000f581c                _xmlXPathNodeTrailingSorted
                0x000f388a                _xmlXPathWrapNodeSet
                0x000f6f70                _xmlXPathFreeParserContext
                0x000fa4e6                _xmlXPathCeilingFunction
                0x000f802a                _xmlXPathCountFunction
                0x000f6950                _xmlXPathCastNumberToBoolean
                0x000fa2be                _xmlXPathRoundFunction
                0x000f551a                _xmlXPathFreeNodeSetList
                0x000f250e                _xmlXPathDebugDumpObject
                0x000f7fb0                _xmlXPathPositionFunction
                0x000f6a68                _xmlXPathPopBoolean
                0x001027e8                _xmlXPathEvalExpr
                0x000f6996                _xmlXPathCastStringToBoolean
                0x000f59dc                _xmlXPathRegisterFuncLookup
                0x000f5b6a                _xmlXPathRegisteredVariablesCleanup
                0x000f6c26                _xmlXPathRegisterAllFunctions
                0x000f575a                _xmlXPathNodeLeading
                0x000fb408                _xmlXPathModValues
                0x000fb7ee                _xmlXPathAddValues
                0x000f7996                _xmlXPathNextAncestor
                0x000f5b4e                _xmlXPathRegisterVariableLookup
                0x000f43be                _xmlXPathCmpNodes
                0x000f7bea                _xmlXPathNextFollowing
                0x000fa65a                _xmlXPathFloorFunction
                0x000f3fc6                _xmlXPathCastNumberToString
                0x000f1cc0                _xmlXPathErr
                0x000f6e66                _xmlXPathFreeContext
                0x000f7b86                _xmlXPathNextPrecedingSibling
                0x000fb8cc                _xmlXPathPopNumber
                0x000f589e                _xmlXPathNodeTrailing
                0x000f5a52                _xmlXPathFunctionLookup
                0x000fbf2e                _xmlXPathCompareValues
                0x00102ad8                _xmlXPathEvalExpression
                0x000f6936                _xmlXPathCastBooleanToNumber
                0x000f5f56                _xmlXPathVariableLookup
                0x000f12b8                _libxml_domnode_tim_sort
                0x000f55cc                _xmlXPathIntersection
                0x000f8cc4                _xmlXPathSubstringBeforeFunction
                0x001027ce                _xmlXPathCompiledEvalToBoolean
                0x000fa0cc                _xmlXPathCastNodeSetToNumber
                0x000f7180                _xmlXPathBooleanFunction
                0x000f4ade                _xmlXPathNodeSetMerge
                0x000f59c2                _xmlXPathRegisterFunc
                0x000f3ae8                _xmlXPathNewString
                0x000f3788                _xmlXPathContextSetCache
                0x000f766a                _xmlXPathNextChild
                0x000f5b34                _xmlXPathRegisterVariable
                0x001028ea                _xmlXPathEval
                0x000f3cf6                _xmlXPathNewFloat
                0x0010243e                _xmlXPathCtxtCompile
                0x000f47d0                _xmlXPathNodeSetCreate
                0x0010250e                _xmlXPathCompile
                0x000f58c0                _xmlXPathTrailingSorted
                0x000f90a0                _xmlXPathTranslateFunction
                0x000fe8d6                _xmlXPathEvaluatePredicateResult
                0x000f544a                _xmlXPathNewValueTree
                0x000f84de                _xmlXPathNamespaceURIFunction
                0x000f7b06                _xmlXPathNextAncestorOrSelf
                0x000f5abe                _xmlXPathRegisterVariableNS
                0x000faa92                _xmlXPathValueFlipSign
                0x000f6888                _xmlXPathConvertString
                0x000f6de0                _xmlXPathNewContext
                0x000f677c                _xmlXPathDistinctSorted
                0x000fa0bc                _xmlXPathCastStringToNumber
                0x000f9d92                _xmlXPathStringEvalNumber
                0x000f7eba                _xmlXPathNextAttribute
                0x000fb942                _xmlXPathCastNodeToNumber
                0x000f93be                _xmlXPathFalseFunction
                0x000f3c02                _xmlXPathNewBoolean
                0x000f8932                _xmlXPathConcatFunction
                0x000fb4ce                _xmlXPathDivValues
                0x000f8280                _xmlXPathIdFunction
                0x000f5d00                _xmlXPathWrapExternal
                0x000fa110                _xmlXPathCastToNumber
                0x000f1b0c                _xmlXPathIsInf
                0x000f58f0                _xmlXPathTrailing
                0x000f35ce                _xmlXPathDebugDumpCompExpr
                0x000f5532                _xmlXPathDifference
                0x000f45cc                _xmlXPathNodeSetSort
                0x000f6858                _xmlXPathDistinct
                0x000f19ae                _xmlXPathInit
                0x000f0b36                _compute_minrun
                0x000f653e                _xmlXPathCastNodeSetToString
                0x000f577c                _xmlXPathLeadingSorted
                0x000f56d8                _xmlXPathNodeLeadingSorted
                0x000fb758                _xmlXPathSubValues
                0x000f9bb2                _xmlXPathParseName
                0x000f7df6                _xmlXPathNextNamespace
                0x000f46d8                _xmlXPathNodeSetAddUnique
                0x000f665c                _xmlXPathCastToString
                0x000f435e                _xmlXPathOrderDocElems
                0x000f4890                _xmlXPathNewNodeSet
                0x000f54b6                _xmlXPathNewNodeSetList
                0x000fc318                _xmlXPathIsNodeType
                0x00102a38                _xmlXPathSetContextNode
                0x000f4e3a                _xmlXPathNodeSetAdd
                0x000f936a                _xmlXPathTrueFunction
                0x000f6354                _xmlXPathPopNodeSet
                0x000f6ad2                _xmlXPathConvertBoolean
                0x000f92f0                _xmlXPathNotFunction
                0x000fb236                _xmlXPathEqualValues
                0x000f57b6                _xmlXPathLeading
                0x000f8a52                _xmlXPathContainsFunction
                0x000f52e8                _xmlXPathFreeNodeSet
                0x000f77ae                _xmlXPathNextDescendant
                0x000f393c                _xmlXPathWrapString
                0x000f7f02                _xmlXPathRoot
                0x000f63e2                _xmlXPathFreeCompExpr
                0x001020f4                _xmlXPathEvalPredicate
                0x000f9c7a                _xmlXPathParseNCName
                0x000f6712                _xmlXPathPopString
                0x000f5280                _xmlXPathNodeSetRemove
                0x000f78bc                _xmlXPathNextParent
                0x000f4c50                _xmlXPathNodeSetContains
                0x000f5cb0                _xmlXPathRegisteredNsCleanup
                0x000f8b84                _xmlXPathStartsWithFunction
                0x000f4cea                _xmlXPathNodeSetAddNs
                0x000f7b38                _xmlXPathNextFollowingSibling
                0x000fb04a                _xmlXPathNotEqualValues
                0x000f1e0e                _xmlXPatherror
                0x000f69d0                _xmlXPathCastToBoolean
                0x000f5a98                _xmlXPathRegisteredFuncsCleanup
                0x000fb884                _xmlXPathConvertNumber
                0x000f49ba                _xmlXPathNodeSetFreeNs
                0x000f59f8                _xmlXPathFunctionLookupNS
                0x000f3f04                _valuePush
                0x000f83ba                _xmlXPathLocalNameFunction
                0x000f5b92                _xmlXPathRegisterNs
                0x000f6ece                _xmlXPathNewParserContext
                0x000f5c14                _xmlXPathNsLookup
                0x000fa1b6                _xmlXPathNumberFunction
                0x000f5202                _xmlXPathNodeSetDel
                0x000f5ef2                _xmlXPathVariableLookupNS
                0x000fb6c2                _xmlXPathMultValues
                0x000f62ca                _xmlXPathPopExternal
                0x000f880a                _xmlXPathStringLengthFunction
                0x000f1aea                _xmlXPathIsNaN
                0x000f7c6c                _xmlXPathNextPreceding
                0x000f69b8                _xmlXPathCastNodeSetToBoolean
                0x000f5cda                _xmlXPathWrapCString
                0x000fb98c                _xmlXPathSumFunction
                0x001027ac                _xmlXPathCompiledEval
                0x000f5d86                _xmlXPathObjectCopy
                0x000f5f8a                _xmlXPathFreeObject
                0x000fa78c                _xmlXPathSubstringFunction
                0x000f5952                _xmlXPathRegisterFuncNS
                0x000f8ef4                _xmlXPathNormalizeFunction
                0x000f7f36                _xmlXPathLastFunction
                0x000f651a                _xmlXPathCastNodeToString
                0x000f9410                _xmlXPathLangFunction
                0x00102a64                _xmlXPathNodeEval
                0x000f8dd0                _xmlXPathSubstringAfterFunction
                0x000f0dc2                _libxml_domnode_binary_insertion_sort
 .text          0x00102e4c     0x2c94 /mnt/e/usr/local/amiga/m68k-amigaos/clib/extra/ns-lib/libxml2.a(xpointer.o)
                0x001031d6                _xmlXPtrNewRangePoints
                0x0010363c                _xmlXPtrLocationSetAdd
                0x00104fde                _xmlXPtrRangeToFunction
                0x0010388e                _xmlXPtrNewLocationSetNodes
                0x001033e0                _xmlXPtrNewCollapsedRange
                0x0010346a                _xmlXPtrNewRangeNodeObject
                0x00103908                _xmlXPtrNewLocationSetNodeSet
                0x00103998                _xmlXPtrWrapLocationSet
                0x0010325e                _xmlXPtrNewRangePointNode
                0x0010587a                _xmlXPtrEvalRangePredicate
                0x001037de                _xmlXPtrLocationSetRemove
                0x00103150                _xmlXPtrNewRange
                0x001043e4                _xmlXPtrBuildNodeList
                0x0010358c                _xmlXPtrLocationSetCreate
                0x00103738                _xmlXPtrLocationSetMerge
                0x00103368                _xmlXPtrNewRangeNodes
                0x00103bae                _xmlXPtrNewContext
                0x001032e0                _xmlXPtrNewRangeNodePoint
                0x0010377e                _xmlXPtrLocationSetDel
                0x0010433a                _xmlXPtrAdvanceNode
                0x00103824                _xmlXPtrFreeLocationSet
                0x00103d24                _xmlXPtrEval
 .text          0x00105ae0     0x2e20 /mnt/e/usr/local/amiga/m68k-amigaos/clib/extra/ns-lib/libxml2.a(xinclude.o)
                0x00105cc2                _xmlXIncludeNewContext
                0x001087ce                _xmlXIncludeProcessFlagsData
                0x00108816                _xmlXIncludeProcess
                0x0010666e                _xmlXIncludeSetFlags
                0x00108826                _xmlXIncludeProcessTreeFlags
                0x00108802                _xmlXIncludeProcessFlags
                0x00108746                _xmlXIncludeProcessTreeFlagsData
                0x00105d76                _xmlXIncludeFreeContext
                0x001088b8                _xmlXIncludeProcessNode
                0x001088a6                _xmlXIncludeProcessTree
 .text          0x00108900     0x1d58 /mnt/e/usr/local/amiga/m68k-amigaos/clib/extra/ns-lib/libxml2.a(nanohttp.o)
                0x0010a37e                _xmlNanoHTTPOpen
                0x00108968                _xmlNanoHTTPScanProxy
                0x0010a45c                _xmlNanoHTTPFetch
                0x00108a3e                _xmlNanoHTTPInit
                0x0010a3a0                _xmlNanoHTTPOpenRedir
                0x0010a530                _xmlNanoHTTPSave
                0x00109716                _xmlNanoHTTPClose
                0x0010a616                _xmlNanoHTTPRedir
                0x0010a5ea                _xmlNanoHTTPAuthHeader
                0x0010a642                _xmlNanoHTTPMimeType
                0x0010a600                _xmlNanoHTTPContentLength
                0x0010a5d4                _xmlNanoHTTPReturnCode
                0x0010892c                _xmlNanoHTTPCleanup
                0x001095f6                _xmlNanoHTTPRead
                0x001098ac                _xmlNanoHTTPMethodRedir
                0x0010a62c                _xmlNanoHTTPEncoding
                0x0010a358                _xmlNanoHTTPMethod
 .text          0x0010a658     0x2288 /mnt/e/usr/local/amiga/m68k-amigaos/clib/extra/ns-lib/libxml2.a(nanoftp.o)
                0x0010b8a0                _xmlNanoFTPDele
                0x0010c788                _xmlNanoFTPRead
                0x0010c4f2                _xmlNanoFTPGetSocket
                0x0010a6ca                _xmlNanoFTPProxy
                0x0010ac66                _xmlNanoFTPFreeCtxt
                0x0010be24                _xmlNanoFTPList
                0x0010af52                _xmlNanoFTPCheckResponse
                0x0010b7f6                _xmlNanoFTPCwd
                0x0010c886                _xmlNanoFTPClose
                0x0010c810                _xmlNanoFTPOpen
                0x0010aad4                _xmlNanoFTPInit
                0x0010bcf2                _xmlNanoFTPCloseConnection
                0x0010b9c6                _xmlNanoFTPGetConnection
                0x0010a9de                _xmlNanoFTPScanProxy
                0x0010b786                _xmlNanoFTPConnectTo
                0x0010abb6                _xmlNanoFTPNewCtxt
                0x0010a658                _xmlNanoFTPCleanup
                0x0010c60c                _xmlNanoFTPGet
                0x0010b018                _xmlNanoFTPQuit
                0x0010af3a                _xmlNanoFTPGetResponse
                0x0010a8e0                _xmlNanoFTPUpdateURL
                0x0010b17c                _xmlNanoFTPConnect
 .text          0x0010c8e0     0x490c /mnt/e/usr/local/amiga/m68k-amigaos/clib/extra/ns-lib/libxml2.a(catalog.o)
                0x00110dfc                _xmlCatalogAddLocal
                0x00110faa                _xmlCatalogLocalResolveURI
                0x0010fa36                _xmlLoadACatalog
                0x0010d74e                _xmlParseCatalogFile
                0x00110a82                _xmlCatalogAdd
                0x0010fcc6                _xmlACatalogResolve
                0x00111132                _xmlCatalogGetPublic
                0x00110a30                _xmlCatalogResolveURI
                0x00110832                _xmlLoadCatalogs
                0x00110c44                _xmlCatalogSetDefaults
                0x001107b2                _xmlLoadCatalog
                0x00110a0a                _xmlCatalogResolve
                0x001108e8                _xmlCatalogCleanup
                0x0010fb56                _xmlACatalogResolveSystem
                0x0010fbf6                _xmlACatalogResolvePublic
                0x00110446                _xmlACatalogRemove
                0x0011104c                _xmlCatalogGetSystem
                0x00110b38                _xmlCatalogRemove
                0x0010f9c0                _xmlLoadSGMLSuperCatalog
                0x001109c6                _xmlCatalogResolveSystem
                0x0010feb6                _xmlACatalogDump
                0x0010d554                _xmlConvertSGMLCatalog
                0x0011059e                _xmlCatalogIsEmpty
                0x00110d20                _xmlCatalogSetDefaultPrefer
                0x001109e8                _xmlCatalogResolvePublic
                0x00110bbc                _xmlCatalogGetDefaults
                0x0011002e                _xmlACatalogAdd
                0x00110a52                _xmlCatalogDump
                0x00110edc                _xmlCatalogLocalResolve
                0x0010fdb0                _xmlACatalogResolveURI
                0x0011067c                _xmlInitializeCatalog
                0x0010cd3e                _xmlFreeCatalog
                0x00110b7c                _xmlCatalogConvert
                0x00110db2                _xmlCatalogFreeLocal
                0x00110d8e                _xmlCatalogSetDebug
                0x00110548                _xmlNewCatalog
 .text          0x001111ec      0x7b4 /mnt/e/usr/local/amiga/m68k-amigaos/clib/extra/ns-lib/libxml2.a(globals.o)
                0x00111590                ___xmlBufferAllocScheme
                0x00111582                ___oldXMLWDcompatibility
                0x00111746                _xmlThrDefTreeIndentString
                0x0011143e                _xmlThrDefRegisterNodeDefault
                0x00111574                ___xmlLastError
                0x00111982                ___xmlParserInputBufferCreateFilenameValue
                0x00111686                ___xmlStructuredError
                0x00111420                _xmlRegisterNodeDefault
                0x00111974                ___xmlDeregisterNodeDefaultValue
                0x0011188c                ___xmlParserVersion
                0x00111738                ___xmlTreeIndentString
                0x0011189a                ___xmlPedanticParserDefaultValue
                0x0011147c                _xmlDeregisterNodeDefault
                0x00111518                _xmlThrDefOutputBufferCreateFilenameDefault
                0x001116b0                ___xmlGetWarningsDefaultValue
                0x001114d8                _xmlThrDefParserInputBufferCreateFilenameDefault
                0x00111702                _xmlThrDefIndentTreeOutput
                0x0011159e                _xmlThrDefBufferAllocScheme
                0x00111566                ___htmlDefaultSAXHandler
                0x001113a6                _xmlThrDefSetGenericErrorFunc
                0x00111642                _xmlThrDefDoValidityCheckingDefaultValue
                0x001113f0                _xmlThrDefSetStructuredErrorFunc
                0x0011149a                _xmlThrDefDeregisterNodeDefault
                0x00111804                ___xmlLoadExtDtdDefaultValue
                0x001117c0                ___xmlLineNumbersDefaultValue
                0x00111966                ___xmlRegisterNodeDefaultValue
                0x0011177c                ___xmlKeepBlanksDefaultValue
                0x001116f4                ___xmlIndentTreeOutput
                0x001118a8                _xmlThrDefPedanticParserDefaultValue
                0x00111558                ___docbDefaultSAXHandler
                0x001116be                _xmlThrDefGetWarningsDefaultValue
                0x001111f6                _xmlInitGlobals
                0x00111238                _xmlInitializeGlobalState
                0x001117ce                _xmlThrDefLineNumbersDefaultValue
                0x00111634                ___xmlDoValidityCheckingDefaultValue
                0x00111618                ___xmlDefaultSAXHandler
                0x001116a2                ___xmlStructuredErrorContext
                0x00111922                ___xmlSubstituteEntitiesDefaultValue
                0x00111812                _xmlThrDefLoadExtDtdDefaultValue
                0x00111856                _xmlThrDefParserDebugEntities
                0x0011178a                _xmlThrDefKeepBlanksDefaultValue
                0x00111626                ___xmlDefaultSAXLocator
                0x001115e2                _xmlThrDefDefaultBufferSize
                0x00111678                ___xmlGenericError
                0x00111212                _xmlCleanupGlobals
                0x00111848                ___xmlParserDebugEntities
                0x00111990                ___xmlOutputBufferCreateFilenameValue
                0x001115d4                ___xmlDefaultBufferSize
                0x001118ec                _xmlThrDefSaveNoEmptyTags
                0x00111694                ___xmlGenericErrorContext
                0x001118de                ___xmlSaveNoEmptyTags
                0x00111930                _xmlThrDefSubstituteEntitiesDefaultValue
 .text          0x001119a0       0xcc /mnt/e/usr/local/amiga/m68k-amigaos/clib/extra/ns-lib/libxml2.a(threads.o)
                0x00111a52                _xmlUnlockLibrary
                0x00111a1c                ___xmlGlobalInitMutexUnlock
                0x001119ca                _xmlMutexLock
                0x00111a0c                _xmlRMutexUnlock
                0x00111a04                _xmlRMutexLock
                0x001119ee                _xmlFreeRMutex
                0x00111a24                ___xmlGlobalInitMutexDestroy
                0x001119d2                _xmlMutexUnlock
                0x00111a36                _xmlGetThreadId
                0x00111a4a                _xmlLockLibrary
                0x00111a14                ___xmlGlobalInitMutexLock
                0x001119a0                _xmlNewMutex
                0x00111a2c                _xmlGetGlobalState
                0x00111a40                _xmlIsMainThread
                0x001119b4                _xmlFreeMutex
                0x00111a5a                _xmlInitThreads
                0x001119da                _xmlNewRMutex
                0x00111a62                _xmlCleanupThreads
 .text          0x00111a6c     0x2554 /mnt/e/usr/local/amiga/m68k-amigaos/clib/extra/ns-lib/libxml2.a(c14n.o)
                0x00113e24                _xmlC14NDocDumpMemory
                0x00113d94                _xmlC14NDocSaveTo
                0x00113bd0                _xmlC14NExecute
                0x00113f30                _xmlC14NDocSave
 .text          0x00113fc0      0xc9c /mnt/e/usr/local/amiga/m68k-amigaos/clib/extra/ns-lib/libxml2.a(xmlstring.o)
                0x00114498                _xmlStrsub
                0x00114bd8                _xmlUTF8Strsub
                0x001144dc                _xmlStrncat
                0x001149e6                _xmlUTF8Strsize
                0x00114118                _xmlStrdup
                0x0011462a                _xmlStrPrintf
                0x00114ac8                _xmlUTF8Strpos
                0x001145f0                _xmlStrcat
                0x00114324                _xmlStrncasecmp
                0x00114556                _xmlStrncatNew
                0x001146ea                _xmlUTF8Charcmp
                0x0011413e                _xmlCharStrndup
                0x0011442c                _xmlStrcasestr
                0x001147d8                _xmlGetUTF8Char
                0x0011429a                _xmlStrncmp
                0x00114b48                _xmlUTF8Strloc
                0x001142d4                _xmlStrcasecmp
                0x0011490a                _xmlCheckUTF8
                0x00114384                _xmlStrchr
                0x001140c0                _xmlStrndup
                0x001141cc                _xmlStrcmp
                0x001146aa                _xmlUTF8Size
                0x001143ae                _xmlStrlen
                0x0011420c                _xmlStrEqual
                0x0011423e                _xmlStrQEqual
                0x001143d0                _xmlStrstr
                0x0011466a                _xmlStrVPrintf
                0x001141a4                _xmlCharStrdup
                0x00114724                _xmlUTF8Strlen
                0x00114a58                _xmlUTF8Strndup
 .text          0x00114c5c     0x1648 /mnt/e/usr/local/amiga/m68k-amigaos/clib/extra/ns-lib/libxml2.a(buf.o)
                0x00114d74                _xmlBufCreateSize
                0x0011558a                _xmlBufLength
                0x001160a2                _xmlBufMergeBuffer
                0x00114ce6                _xmlBufCreate
                0x00114f6e                _xmlBufFree
                0x00115a00                _xmlBufAddHead
                0x001161c4                _xmlBufGetInputBase
                0x001153d0                _xmlBufContent
                0x00114e54                _xmlBufCreateStatic
                0x00115d62                _xmlBufWriteChar
                0x00115626                _xmlBufAvail
                0x00114f0a                _xmlBufSetAllocationScheme
                0x00116232                _xmlBufSetInputBaseCur
                0x001153ec                _xmlBufEnd
                0x001154ea                _xmlBufErase
                0x00115fc4                _xmlBufBackToBuffer
                0x00115bf2                _xmlBufCCat
                0x0011531a                _xmlBufInflate
                0x0011534c                _xmlBufDump
                0x00115f16                _xmlBufFromBuffer
                0x00115dcc                _xmlBufWriteQuotedString
                0x00115b84                _xmlBufCat
                0x001155d8                _xmlBufUse
                0x00114e1a                _xmlBufDetach
                0x001156d2                _xmlBufResize
                0x001152dc                _xmlBufGrow
                0x001158da                _xmlBufAdd
                0x0011507e                _xmlBufShrink
                0x00114fc6                _xmlBufEmpty
                0x00115d04                _xmlBufWriteCHAR
                0x0011567c                _xmlBufIsEmpty
                0x0011543c                _xmlBufAddLen
                0x00116136                _xmlBufResetInput
                0x00114ef4                _xmlBufGetAllocationScheme
 .text          0x001162a4     0x97e0 /mnt/e/usr/local/amiga/m68k-amigaos/clib/extra/ns-lib/libxml2.a(xmlregexp.o)
                0x0011fa58                _xmlExpCtxtNbNodes
                0x0011e3de                _xmlExpNewSeq
                0x0011c7fc                _xmlFreeAutomata
                0x0011d17e                _xmlAutomataSetFlags
                0x0011e544                _xmlExpGetLanguage
                0x0011d1cc                _xmlAutomataNewTransition
                0x0011d624                _xmlAutomataNewCountTrans
                0x0011a0e6                _xmlRegExecPushString
                0x0011d9fc                _xmlAutomataNewEpsilon
                0x0011d196                _xmlAutomataGetInitState
                0x0011cf4e                _xmlRegexpCompile
                0x0011975c                _xmlRegFreeExecCtxt
                0x0011a5f0                _xmlRegExecErrInfo
                0x0011d002                _xmlRegFreeRegexp
                0x0011c86e                _xmlRegexpIsDeterminist
                0x0011dd52                _xmlExpFree
                0x0011d746                _xmlAutomataNewOnceTrans2
                0x0011d248                _xmlAutomataNewTransition2
                0x0011d9cc                _xmlAutomataNewState
                0x0011e338                _xmlExpNewAtom
                0x0011c29a                _xmlRegexpExec
                0x0011e38a                _xmlExpNewOr
                0x0011d33a                _xmlAutomataNewNegTrans
                0x0011fa42                _xmlExpMaxToken
                0x0011f09e                _xmlExpExpDerive
                0x0011d1ac                _xmlAutomataSetFinalState
                0x0011db5c                _xmlAutomataNewCounterTrans
                0x0011a5ce                _xmlRegExecNextValues
                0x0011db10                _xmlAutomataNewCountedTrans
                0x0011dbec                _xmlExpNewCtxt
                0x0011e324                _xmlExpRef
                0x0011d8f4                _xmlAutomataNewOnceTrans
                0x0011e690                _xmlExpGetStart
                0x0011f706                _xmlExpParse
                0x0011da40                _xmlAutomataNewAllTrans
                0x0011e89c                _xmlExpStringDerive
                0x0011bc52                _xmlRegexpPrint
                0x00119642                _xmlRegNewExecCtxt
                0x0011a100                _xmlRegExecPushString2
                0x0011fa6e                _xmlExpCtxtNbCons
                0x0011c810                _xmlNewAutomata
                0x0011dca8                _xmlExpFreeCtxt
                0x0011dbd4                _xmlAutomataIsDeterminist
                0x0011d46a                _xmlAutomataNewCountTrans2
                0x0011e6ca                _xmlExpIsNillable
                0x0011e432                _xmlExpNewRange
                0x0011dad6                _xmlAutomataNewCounter
                0x0011dba8                _xmlAutomataCompile
                0x0011fa20                _xmlExpDump
                0x0011f0fc                _xmlExpSubsume
 .text          0x0011fa84    0x23960 /mnt/e/usr/local/amiga/m68k-amigaos/clib/extra/ns-lib/libxml2.a(xmlschemas.o)
                0x00134288                _xmlSchemaFreeParserCtxt
                0x001433cc                _xmlSchemaValidCtxtGetParserCtxt
                0x0014322c                _xmlSchemaValidateSetLocator
                0x00141f58                _xmlSchemaSetValidOptions
                0x0013055c                _xmlSchemaNewValidCtxt
                0x0012367e                _xmlSchemaFreeType
                0x00131614                _xmlSchemaGetParserErrors
                0x001231bc                _xmlSchemaNewFacet
                0x0013067a                _xmlSchemaSetParserStructuredErrors
                0x00142f24                _xmlSchemaSAXPlug
                0x00141f8a                _xmlSchemaValidCtxtGetOptions
                0x00142824                _xmlSchemaValidateDoc
                0x0013d87e                _xmlSchemaParse
                0x0012354c                _xmlSchemaFreeWildcard
                0x00143386                _xmlSchemaValidateFile
                0x00141efc                _xmlSchemaIsValid
                0x001305fe                _xmlSchemaSetParserErrors
                0x00141eae                _xmlSchemaValidateSetFilename
                0x001305bc                _xmlSchemaSetValidErrors
                0x00134024                _xmlSchemaFreeValidCtxt
                0x00143294                _xmlSchemaValidateStream
                0x00136362                _xmlSchemaCheckFacet
                0x00141f18                _xmlSchemaGetValidErrors
                0x0012ef1e                _xmlSchemaNewDocParserCtxt
                0x0012361c                _xmlSchemaFreeFacet
                0x0012ee8e                _xmlSchemaNewParserCtxt
                0x001431e0                _xmlSchemaSAXUnplug
                0x00124838                _xmlSchemaDump
                0x00130640                _xmlSchemaSetValidStructuredErrors
                0x0012eed8                _xmlSchemaNewMemParserCtxt
                0x00123a22                _xmlSchemaFree
                0x001427e4                _xmlSchemaValidateOneElement
 .text          0x001433e4     0x7ce0 /mnt/e/usr/local/amiga/m68k-amigaos/clib/extra/ns-lib/libxml2.a(xmlschemastypes.o)
                0x00143ea0                _xmlSchemaCleanupTypes
                0x00144546                _xmlSchemaGetBuiltInListSimpleTypeItemType
                0x0014a41c                _xmlSchemaGetCanonValue
                0x0014393e                _xmlSchemaInitTypes
                0x0014b0ae                _xmlSchemaGetValType
                0x0014a218                _xmlSchemaValidateListSimpleTypeFacet
                0x0014742e                _xmlSchemaValPredefTypeNodeNoNorm
                0x0014afe6                _xmlSchemaGetCanonValueWhtsp
                0x0014729c                _xmlSchemaValPredefTypeNode
                0x0014745a                _xmlSchemaValidatePredefinedType
                0x00143f2e                _xmlSchemaIsBuiltInTypeFacet
                0x0014a1d2                _xmlSchemaValidateFacet
                0x00144388                _xmlSchemaValueGetAsBoolean
                0x001443ec                _xmlSchemaNewNOTATIONValue
                0x001442ea                _xmlSchemaValueGetNext
                0x00144300                _xmlSchemaValueGetAsString
                0x0014408a                _xmlSchemaGetBuiltInType
                0x00149de6                _xmlSchemaValidateLengthFacetWhtsp
                0x00144c70                _xmlSchemaCollapseString
                0x00149a76                _xmlSchemaCompareValues
                0x00144448                _xmlSchemaFreeValue
                0x00149dba                _xmlSchemaValidateLengthFacet
                0x00144420                _xmlSchemaNewQNameValue
                0x0014a2ac                _xmlSchemaValidateFacetWhtsp
                0x00144bae                _xmlSchemaWhiteSpaceReplace
                0x001443a6                _xmlSchemaNewStringValue
                0x001442c8                _xmlSchemaValueAppend
                0x0014450c                _xmlSchemaGetPredefinedType
                0x00149c40                _xmlSchemaGetFacetValueAsULong
                0x00149ae2                _xmlSchemaCompareValuesWhtsp
                0x001476ba                _xmlSchemaCopyValue
 .text          0x0014b0c4     0x4760 /mnt/e/usr/local/amiga/m68k-amigaos/clib/extra/ns-lib/libxml2.a(xmlunicode.o)
                0x0014f426                _xmlUCSIsCatLt
                0x0014ea9e                _xmlUCSIsHighPrivateUseSurrogates
                0x0014ef74                _xmlUCSIsRunic
                0x0014eea4                _xmlUCSIsOpticalCharacterRecognition
                0x0014ec26                _xmlUCSIsLatinExtendedA
                0x0014f6ce                _xmlUCSIsCatPs
                0x0014f514                _xmlUCSIsCatNl
                0x0014f18e                _xmlUCSIsTelugu
                0x0014f0e6                _xmlUCSIsTagalog
                0x0014edf6                _xmlUCSIsMongolian
                0x0014e95e                _xmlUCSIsGreek
                0x0014ef14                _xmlUCSIsPrivateUse
                0x0014f274                _xmlUCSIsYiRadicals
                0x0014ec42                _xmlUCSIsLatinExtendedB
                0x0014f63e                _xmlUCSIsCatPf
                0x0014ea2a                _xmlUCSIsHangulJamo
                0x0014eef8                _xmlUCSIsPhoneticExtensions
                0x0014efe4                _xmlUCSIsSpacingModifierLetters
                0x0014e45a                _xmlUCSIsAegeanNumbers
                0x0014f200                _xmlUCSIsUgaritic
                0x0014e7b0                _xmlUCSIsControlPictures
                0x0014e5e2                _xmlUCSIsBuhid
                0x0014f156                _xmlUCSIsTaiXuanJingSymbols
                0x0014ea48                _xmlUCSIsHangulSyllables
                0x0014e926                _xmlUCSIsGeorgian
                0x0014e706                _xmlUCSIsCJKUnifiedIdeographsExtensionB
                0x0014ead8                _xmlUCSIsHiragana
                0x0014ec7e                _xmlUCSIsLetterlikeSymbols
                0x0014e58c                _xmlUCSIsBopomofoExtended
                0x0014eb10                _xmlUCSIsIdeographicDescriptionCharacters
                0x0014f4cc                _xmlUCSIsCatMn
                0x0014f43e                _xmlUCSIsCatLu
                0x0014e83e                _xmlUCSIsDeseret
                0x0014f308                _xmlUCSIsCatCc
                0x0014e5fe                _xmlUCSIsByzantineMusicalSymbols
                0x0014ebd6                _xmlUCSIsKhmerSymbols
                0x0014f6e6                _xmlUCSIsCatS
                0x0014f3c6                _xmlUCSIsCatL
                0x0014eb66                _xmlUCSIsKannada
                0x0014f054                _xmlUCSIsSupplementalArrowsB
                0x0014f2ca                _xmlUCSIsBlock
                0x0014e6ae                _xmlUCSIsCJKSymbolsandPunctuation
                0x0014e8d0                _xmlUCSIsEthiopic
                0x0014e99a                _xmlUCSIsGreekandCoptic
                0x0014e8b2                _xmlUCSIsEnclosedCJKLettersandMonths
                0x0014e7e8                _xmlUCSIsCypriotSyllabary
                0x0014f08e                _xmlUCSIsSupplementaryPrivateUseAreaA
                0x0014f456                _xmlUCSIsCatM
                0x0014f2f0                _xmlUCSIsCatC
                0x0014f3de                _xmlUCSIsCatLl
                0x0014f626                _xmlUCSIsCatPe
                0x0014ea66                _xmlUCSIsHanunoo
                0x0014e476                _xmlUCSIsAlphabeticPresentationForms
                0x0014f6fe                _xmlUCSIsCatSc
                0x0014f1e2                _xmlUCSIsTibetan
                0x0014f0ca                _xmlUCSIsSyriac
                0x0014f590                _xmlUCSIsCatP
                0x0014e778                _xmlUCSIsCombiningHalfMarks
                0x0014f1c6                _xmlUCSIsThai
                0x0014f746                _xmlUCSIsCatSo
                0x0014e674                _xmlUCSIsCJKCompatibilityIdeographsSupplement
                0x0014eaf4                _xmlUCSIsIPAExtensions
                0x0014e63a                _xmlUCSIsCJKCompatibilityForms
                0x0014e5a8                _xmlUCSIsBoxDrawing
                0x0014f7a2                _xmlUCSIsCatZs
                0x0014e4ec                _xmlUCSIsArmenian
                0x0014e740                _xmlUCSIsCombiningDiacriticalMarks
                0x0014ed0c                _xmlUCSIsMalayalam
                0x0014e876                _xmlUCSIsDingbats
                0x0014e4ce                _xmlUCSIsArabicPresentationFormsB
                0x0014f4e4                _xmlUCSIsCatN
                0x0014e794                _xmlUCSIsCombiningMarksforSymbols
                0x0014e97c                _xmlUCSIsGreekExtended
                0x0014ee32                _xmlUCSIsMyanmar
                0x0014ecb6                _xmlUCSIsLinearBIdeograms
                0x0014ed64                _xmlUCSIsMiscellaneousMathematicalSymbolsA
                0x0014ed28                _xmlUCSIsMathematicalAlphanumericSymbols
                0x0014ef90                _xmlUCSIsShavian
                0x0014ed9c                _xmlUCSIsMiscellaneousSymbols
                0x0014f716                _xmlUCSIsCatSk
                0x0014f578                _xmlUCSIsCatNo
                0x0014e492                _xmlUCSIsArabic
                0x0014e570                _xmlUCSIsBopomofo
                0x0014efac                _xmlUCSIsSinhala
                0x0014e656                _xmlUCSIsCJKCompatibilityIdeographs
                0x0014e554                _xmlUCSIsBlockElements
                0x0014f46e                _xmlUCSIsCatMc
                0x0014e6ca                _xmlUCSIsCJKUnifiedIdeographs
                0x0014e6e8                _xmlUCSIsCJKUnifiedIdeographsExtensionA
                0x0014f21c                _xmlUCSIsUnifiedCanadianAboriginalSyllabics
                0x0014f486                _xmlUCSIsCatMe
                0x0014eb9e                _xmlUCSIsKatakanaPhoneticExtensions
                0x0014f78c                _xmlUCSIsCatZp
                0x0014edd8                _xmlUCSIsMiscellaneousTechnical
                0x0014f6b6                _xmlUCSIsCatPo
                0x0014f66e                _xmlUCSIsCatPi
                0x0014eedc                _xmlUCSIsOsmanya
                0x0014e942                _xmlUCSIsGothic
                0x0014f13a                _xmlUCSIsTaiLe
                0x0014f2ae                _xmlUCSIsYijingHexagramSymbols
                0x0014f11e                _xmlUCSIsTags
                0x0014ebf2                _xmlUCSIsLao
                0x0014e8ee                _xmlUCSIsGeneralPunctuation
                0x0014f3f6                _xmlUCSIsCatLm
                0x0014eec0                _xmlUCSIsOriya
                0x0014f01c                _xmlUCSIsSuperscriptsandSubscripts
                0x0014e894                _xmlUCSIsEnclosedAlphanumerics
                0x0014e822                _xmlUCSIsCyrillicSupplement
                0x0014f102                _xmlUCSIsTagbanwa
                0x0014ecee                _xmlUCSIsLowSurrogates
                0x0014ec9a                _xmlUCSIsLimbu
                0x0014e724                _xmlUCSIsCherokee
                0x0014f60e                _xmlUCSIsCatPd
                0x0014e804                _xmlUCSIsCyrillic
                0x0014e7cc                _xmlUCSIsCurrencySymbols
                0x0014e5c4                _xmlUCSIsBraillePatterns
                0x0014e75c                _xmlUCSIsCombiningDiacriticalMarksforSymbols
                0x0014e61c                _xmlUCSIsCJKCompatibility
                0x0014eb82                _xmlUCSIsKatakana
                0x0014e90a                _xmlUCSIsGeometricShapes
                0x0014f342                _xmlUCSIsCatCo
                0x0014e4b0                _xmlUCSIsArabicPresentationFormsA
                0x0014ecd2                _xmlUCSIsLinearBSyllabary
                0x0014e85a                _xmlUCSIsDevanagari
                0x0014f382                _xmlUCSIsCatCs
                0x0014ee50                _xmlUCSIsNumberForms
                0x0014f72e                _xmlUCSIsCatSm
                0x0014ebba                _xmlUCSIsKhmer
                0x0014e9f0                _xmlUCSIsHalfwidthandFullwidthForms
                0x0014f776                _xmlUCSIsCatZl
                0x0014ea0e                _xmlUCSIsHangulCompatibilityJamo
                0x0014ed80                _xmlUCSIsMiscellaneousMathematicalSymbolsB
                0x0014f32a                _xmlUCSIsCatCf
                0x0014ee14                _xmlUCSIsMusicalSymbols
                0x0014f23a                _xmlUCSIsVariationSelectors
                0x0014ee88                _xmlUCSIsOldItalic
                0x0014e9d4                _xmlUCSIsGurmukhi
                0x0014f40e                _xmlUCSIsCatLo
                0x0014f75e                _xmlUCSIsCatZ
                0x0014f290                _xmlUCSIsYiSyllables
                0x0014f256                _xmlUCSIsVariationSelectorsSupplement
                0x0014f1aa                _xmlUCSIsThaana
                0x0014e524                _xmlUCSIsBasicLatin
                0x0014f5a8                _xmlUCSIsCatPc
                0x0014f070                _xmlUCSIsSupplementalMathematicalOperators
                0x0014f7fe                _xmlUCSIsCat
                0x0014e508                _xmlUCSIsArrows
                0x0014f0ac                _xmlUCSIsSupplementaryPrivateUseAreaB
                0x0014f172                _xmlUCSIsTamil
                0x0014eb48                _xmlUCSIsKangxiRadicals
                0x0014ec60                _xmlUCSIsLatinExtendedAdditional
                0x0014efc8                _xmlUCSIsSmallFormVariants
                0x0014f038                _xmlUCSIsSupplementalArrowsA
                0x0014e692                _xmlUCSIsCJKRadicalsSupplement
                0x0014ef56                _xmlUCSIsPrivateUseArea
                0x0014f4fc                _xmlUCSIsCatNd
                0x0014ec0e                _xmlUCSIsLatin1Supplement
                0x0014e9b8                _xmlUCSIsGujarati
                0x0014edba                _xmlUCSIsMiscellaneousSymbolsandArrows
                0x0014ea82                _xmlUCSIsHebrew
                0x0014ee6c                _xmlUCSIsOgham
                0x0014eaba                _xmlUCSIsHighSurrogates
                0x0014e538                _xmlUCSIsBengali
                0x0014f000                _xmlUCSIsSpecials
                0x0014ed46                _xmlUCSIsMathematicalOperators
                0x0014eb2c                _xmlUCSIsKanbun
 .text          0x0014f824     0x5390 /mnt/e/usr/local/amiga/m68k-amigaos/clib/extra/ns-lib/libxml2.a(xmlreader.o)
                0x001521e0                _xmlTextReaderMoveToAttribute
                0x00152132                _xmlTextReaderLookupNamespace
                0x00151d9c                _xmlTextReaderGetAttributeNo
                0x00153b00                _xmlTextReaderSchemaValidateCtxt
                0x00153f64                _xmlTextReaderSetErrorHandler
                0x00153cd4                _xmlTextReaderLocatorLineNumber
                0x00152508                _xmlTextReaderMoveToElement
                0x00151ab8                _xmlFreeTextReader
                0x001514e8                _xmlTextReaderReadInnerXml
                0x001527b6                _xmlTextReaderIsEmptyElement
                0x00151688                _xmlTextReaderReadString
                0x00152b58                _xmlTextReaderPrefix
                0x001541d4                _xmlTextReaderIsValid
                0x0015295c                _xmlTextReaderLocalName
                0x00152d94                _xmlTextReaderDepth
                0x00153b64                _xmlTextReaderIsNamespaceDecl
                0x001530a0                _xmlTextReaderConstString
                0x00152452                _xmlTextReaderMoveToFirstAttribute
                0x0015325e                _xmlTextReaderPreservePattern
                0x001548d0                _xmlReaderForIO
                0x00151472                _xmlTextReaderNext
                0x00153346                _xmlTextReaderCurrentDoc
                0x00154a72                _xmlReaderNewDoc
                0x00152e62                _xmlTextReaderValue
                0x0015318a                _xmlTextReaderGetParserProp
                0x00154252                _xmlTextReaderSetup
                0x0015321a                _xmlTextReaderGetParserColumnNumber
                0x001506ea                _xmlTextReaderExpand
                0x00153d20                _xmlTextReaderLocatorBaseURI
                0x00152c46                _xmlTextReaderNamespaceUri
                0x001509d6                _xmlTextReaderRead
                0x001531f2                _xmlTextReaderGetParserLineNumber
                0x001546e8                _xmlTextReaderByteConsumed
                0x00152496                _xmlTextReaderMoveToNextAttribute
                0x001515bc                _xmlTextReaderReadOuterXml
                0x001525fc                _xmlTextReaderConstEncoding
                0x00151716                _xmlTextReaderNextSibling
                0x00152afc                _xmlTextReaderConstLocalName
                0x00152172                _xmlTextReaderMoveToAttributeNo
                0x001513a0                _xmlTextReaderReadState
                0x00154952                _xmlReaderNewWalker
                0x00153be0                _xmlTextReaderStandalone
                0x00151a22                _xmlNewTextReaderFilename
                0x00153598                _xmlTextReaderSetSchema
                0x00154a22                _xmlReaderNewMemory
                0x00152848                _xmlTextReaderName
                0x00154222                _xmlTextReaderGetErrorHandler
                0x001530d8                _xmlTextReaderSetParserProp
                0x00152d3e                _xmlTextReaderConstBaseUri
                0x00152f1e                _xmlTextReaderConstValue
                0x0015302e                _xmlTextReaderXmlLang
                0x0015092a                _xmlTextReaderPreserve
                0x00153242                _xmlTextReaderCurrentNode
                0x00152d1a                _xmlTextReaderBaseUri
                0x001530c4                _xmlTextReaderNormalization
                0x0015482e                _xmlReaderForDoc
                0x00153b1a                _xmlTextReaderSchemaValidate
                0x0015253a                _xmlTextReaderReadAttributeValue
                0x00152094                _xmlTextReaderGetRemainder
                0x001533c8                _xmlTextReaderRelaxNGSetSchema
                0x00154ab6                _xmlReaderNewFile
                0x0015236e                _xmlTextReaderMoveToAttributeNs
                0x001547c6                _xmlReaderForMemory
                0x00151d16                _xmlTextReaderClose
                0x00154792                _xmlReaderForFile
                0x0015470a                _xmlReaderWalker
                0x001529c0                _xmlTextReaderConstName
                0x00154862                _xmlReaderForFd
                0x0015301a                _xmlTextReaderQuoteChar
                0x00153b96                _xmlTextReaderConstXmlVersion
                0x00152ca8                _xmlTextReaderConstNamespaceUri
                0x00151fd8                _xmlTextReaderGetAttributeNs
                0x0015409c                _xmlTextReaderSetStructuredErrorHandler
                0x00151780                _xmlNewTextReader
                0x0015304e                _xmlTextReaderConstXmlLang
                0x001526b8                _xmlTextReaderNodeType
                0x00152bc6                _xmlTextReaderConstPrefix
                0x00152ddc                _xmlTextReaderHasAttributes
                0x0015300a                _xmlTextReaderIsDefault
                0x00154b50                _xmlReaderNewIO
                0x00152e1c                _xmlTextReaderHasValue
                0x00153b4c                _xmlTextReaderRelaxNGValidate
                0x00152646                _xmlTextReaderAttributeCount
                0x00151e46                _xmlTextReaderGetAttribute
                0x00153b32                _xmlTextReaderRelaxNGValidateCtxt
                0x00154b04                _xmlReaderNewFd
 .text          0x00154bb4     0xeb50 /mnt/e/usr/local/amiga/m68k-amigaos/clib/extra/ns-lib/libxml2.a(relaxng.o)
                0x0016341c                _xmlRelaxNGSetValidErrors
                0x001573b8                _xmlRelaxNGInitTypes
                0x0015743e                _xmlRelaxNGCleanupTypes
                0x0015dab2                _xmlRelaxNGNewDocParserCtxt
                0x00163462                _xmlRelaxNGGetValidErrors
                0x0016001e                _xmlRelaxNGDump
                0x00160432                _xmlRelaxNGValidatePushCData
                0x0015db28                _xmlRelaxNGFreeParserCtxt
                0x0015f546                _xmlRelaxNGParse
                0x0015da44                _xmlRelaxNGNewMemParserCtxt
                0x00155210                _xmlRelaxNGFree
                0x001632fc                _xmlRelaxNGFreeValidCtxt
                0x00155a26                _xmlRelaxParserSetFlag
                0x00163440                _xmlRelaxNGSetValidStructuredErrors
                0x001601f6                _xmlRelaxNGDumpTree
                0x001604bc                _xmlRelaxNGValidatePopElement
                0x0015d9da                _xmlRelaxNGNewParserCtxt
                0x0015f78c                _xmlRelaxNGGetParserErrors
                0x0015f768                _xmlRelaxNGSetParserErrors
                0x00163274                _xmlRelaxNGNewValidCtxt
                0x001631e2                _xmlRelaxNGValidateFullElement
                0x0015f7ca                _xmlRelaxNGSetParserStructuredErrors
                0x0016031c                _xmlRelaxNGValidatePushElement
                0x001634a0                _xmlRelaxNGValidateDoc
 .text          0x00163704     0x13e4 /mnt/e/usr/local/amiga/m68k-amigaos/clib/extra/ns-lib/libxml2.a(dict.o)
                0x00164398                _xmlDictExists
                0x001640da                _xmlDictLookup
                0x00164aa4                _xmlDictSetLimit
                0x00163fa4                _xmlDictFree
                0x00163bbc                _xmlDictCreate
                0x00164a2e                _xmlDictOwns
                0x00163c94                _xmlDictCreateSub
                0x001645a2                _xmlDictQLookup
                0x00164a7c                _xmlDictSize
                0x00163704                _xmlInitializeDict
                0x0016376c                ___xmlRandom
                0x001637ac                _xmlDictCleanup
                0x0016370e                ___xmlInitializeDict
                0x00163c4a                _xmlDictReference
                0x00164ac0                _xmlDictGetUsage
 .text          0x00164ae8     0x3940 /mnt/e/usr/local/amiga/m68k-amigaos/clib/extra/ns-lib/libxml2.a(SAX2.o)
                0x00164e1a                _xmlSAX2GetPublicId
                0x00165bf2                _xmlSAX2SetDocumentLocator
                0x0016599a                _xmlSAX2NotationDecl
                0x00167f7e                _xmlSAX2Comment
                0x00167b04                _xmlSAX2EndElementNs
                0x00168212                _xmlSAX2InitDefaultSAXHandler
                0x0016832c                _htmlDefaultSAXHandlerInit
                0x001654d8                _xmlSAX2EntityDecl
                0x00168046                _xmlSAX2CDataBlock
                0x00165aba                _xmlSAX2UnparsedEntityDecl
                0x0016585e                _xmlSAX2ElementDecl
                0x00167ea8                _xmlSAX2IgnorableWhitespace
                0x00168250                _xmlDefaultSAXHandlerInit
                0x0016529a                _xmlSAX2GetEntity
                0x00164ed2                _xmlSAX2HasExternalSubset
                0x00168414                _docbDefaultSAXHandlerInit
                0x00164e24                _xmlSAX2GetSystemId
                0x001651d0                _xmlSAX2ResolveEntity
                0x00164fd4                _xmlSAX2ExternalSubset
                0x001680b2                _xmlSAXDefaultVersion
                0x00164eac                _xmlSAX2HasInternalSubset
                0x00166e80                _xmlSAX2EndElement
                0x00164f0e                _xmlSAX2InternalSubset
                0x00164e84                _xmlSAX2IsStandalone
                0x001680de                _xmlSAXVersion
                0x00168266                _xmlSAX2InitHtmlDefaultSAXHandler
                0x00164e64                _xmlSAX2GetColumnNumber
                0x00167eb0                _xmlSAX2ProcessingInstruction
                0x00165d32                _xmlSAX2EndDocument
                0x00164e44                _xmlSAX2GetLineNumber
                0x001656a4                _xmlSAX2AttributeDecl
                0x001667dc                _xmlSAX2StartElement
                0x00167b9a                _xmlSAX2Reference
                0x00167c6e                _xmlSAX2Characters
                0x0016833e                _xmlSAX2InitDocbDefaultSAXHandler
                0x0016541c                _xmlSAX2GetParameterEntity
                0x00167610                _xmlSAX2StartElementNs
                0x00165c10                _xmlSAX2StartDocument
 .text          0x00168428     0x424c /mnt/e/usr/local/amiga/m68k-amigaos/clib/extra/ns-lib/libxml2.a(xmlwriter.o)
                0x0016b07c                _xmlTextWriterSetIndent
                0x00168fcc                _xmlTextWriterEndPI
                0x0016a6f6                _xmlTextWriterWriteRawLen
                0x0016b182                _xmlTextWriterWriteDTDNotation
                0x001692f2                _xmlTextWriterStartAttributeNS
                0x0016b990                _xmlTextWriterStartDTDElement
                0x00168a7a                _xmlNewTextWriterTree
                0x0016b8c2                _xmlTextWriterWriteDTDAttlist
                0x00169980                _xmlTextWriterEndDTD
                0x0016a9f2                _xmlTextWriterWriteAttribute
                0x0016bbbe                _xmlTextWriterFullEndElement
                0x0016b5d2                _xmlTextWriterWriteDTDInternalEntity
                0x0016a876                _xmlTextWriterWriteDTD
                0x0016b75a                _xmlTextWriterStartDTDAttlist
                0x001691d2                _xmlTextWriterStartAttribute
                0x0016ad84                _xmlTextWriterWriteVFormatAttributeNS
                0x0016c180                _xmlTextWriterWriteVFormatElement
                0x0016c65e                _xmlTextWriterWriteFormatComment
                0x0016bd16                _xmlTextWriterEndElement
                0x0016a4e8                _xmlTextWriterWriteBase64
                0x0016ae64                _xmlTextWriterWriteVFormatString
                0x00168b56                _xmlFreeTextWriter
                0x00168728                _xmlNewTextWriterMemory
                0x00169f84                _xmlTextWriterStartCDATA
                0x0016a7c2                _xmlTextWriterWriteString
                0x001698bc                _xmlTextWriterEndDTDEntity
                0x0016af26                _xmlTextWriterWriteFormatRaw
                0x00168f58                _xmlTextWriterEndCDATA
                0x0016c452                _xmlTextWriterStartComment
                0x0016b63e                _xmlTextWriterWriteDTDEntity
                0x0016bfa8                _xmlTextWriterStartElement
                0x00168828                _xmlNewTextWriterPushParser
                0x0016a984                _xmlTextWriterWriteAttributeNS
                0x0016ac9a                _xmlTextWriterWriteFormatDTD
                0x0016b0a4                _xmlTextWriterSetIndentString
                0x0016b702                _xmlTextWriterWriteFormatDTDInternalEntity
                0x0016ac44                _xmlTextWriterWriteVFormatDTD
                0x0016adfc                _xmlTextWriterWriteVFormatAttribute
                0x0016ae4a                _xmlTextWriterWriteFormatAttribute
                0x0016c128                _xmlTextWriterWriteElement
                0x0016bba0                _xmlTextWriterWriteFormatDTDElement
                0x0016b91c                _xmlTextWriterWriteVFormatDTDAttlist
                0x0016ad1c                _xmlTextWriterWriteVFormatPI
                0x0016894e                _xmlNewTextWriterDoc
                0x0016aeb6                _xmlTextWriterWriteFormatString
                0x0016baf8                _xmlTextWriterWriteDTDElement
                0x00169524                _xmlTextWriterStartDTD
                0x0016c1ce                _xmlTextWriterWriteFormatElement
                0x0016c606                _xmlTextWriterWriteVFormatComment
                0x0016b96a                _xmlTextWriterWriteFormatDTDAttlist
                0x0016c216                _xmlTextWriterStartElementNS
                0x0016b3b6                _xmlTextWriterStartDTDEntity
                0x0016c3fe                _xmlTextWriterWriteFormatElementNS
                0x00169166                _xmlTextWriterEndAttribute
                0x0016adda                _xmlTextWriterWriteFormatAttributeNS
                0x0016be8a                _xmlTextWriterEndDocument
                0x0016b544                _xmlTextWriterWriteDTDExternalEntity
                0x0016c3a8                _xmlTextWriterWriteVFormatElementNS
                0x0016bb52                _xmlTextWriterWriteVFormatDTDElement
                0x001690c0                _xmlTextWriterEndComment
                0x0016a148                _xmlTextWriterStartPI
                0x0016a92c                _xmlTextWriterWritePI
                0x0016a8d8                _xmlTextWriterWriteCDATA
                0x00169dcc                _xmlTextWriterFlush
                0x001697a8                _xmlTextWriterEndDTDElement
                0x0016a3e2                _xmlTextWriterWriteBinHex
                0x0016b0f2                _xmlTextWriterSetQuoteChar
                0x00168532                _xmlNewTextWriter
                0x00168cf4                _xmlTextWriterStartDocument
                0x00168696                _xmlNewTextWriterFilename
                0x0016aedc                _xmlTextWriterWriteVFormatRaw
                0x0016c33c                _xmlTextWriterWriteElementNS
                0x00169832                _xmlTextWriterEndDTDAttlist
                0x0016c582                _xmlTextWriterWriteComment
                0x0016ad6a                _xmlTextWriterWriteFormatPI
                0x0016b6b0                _xmlTextWriterWriteVFormatDTDInternalEntity
                0x0016a79c                _xmlTextWriterWriteRaw
                0x00169bfa                _xmlTextWriterWriteDTDExternalEntityContents
                0x0016ad06                _xmlTextWriterWriteFormatCDATA
                0x0016acbc                _xmlTextWriterWriteVFormatCDATA
 .text          0x0016c674     0x1be0 /mnt/e/usr/local/amiga/m68k-amigaos/clib/extra/ns-lib/libxml2.a(legacy.o)
                0x0016e000                _processingInstruction
                0x0016deb2                _endElement
                0x0016d55a                _xmlScanName
                0x0016ca74                _xmlGetFeaturesList
                0x0016d8c0                _getColumnNumber
                0x0016ca6c                _xmlCleanupPredefinedEntities
                0x0016d378                _xmlNamespaceParseNCName
                0x0016e178                _namespaceDecl
                0x0016ce92                _xmlSetFeature
                0x0016dfb2                _ignorableWhitespace
                0x0016db72                _getParameterEntity
                0x0016d502                _xmlParseNamespace
                0x0016e0e6                _getNamespace
                0x0016dc8e                _elementDecl
                0x0016d7d0                _getPublicId
                0x0016dc28                _attributeDecl
                0x0016dd4c                _unparsedEntityDecl
                0x0016d81e                _getSystemId
                0x0016de54                _attribute
                0x0016da0a                _internalSubset
                0x0016d86e                _getLineNumber
                0x0016ca36                _htmlDecodeEntities
                0x0016d964                _hasInternalSubset
                0x0016d5c0                _xmlParserHandleReference
                0x0016d312                _xmlDecodeEntities
                0x0016e0a0                _setNamespace
                0x0016df02                _reference
                0x0016da68                _externalSubset
                0x0016d4a2                _xmlParseQuotedString
                0x0016d910                _isStandalone
                0x0016df54                _characters
                0x0016d9b8                _hasExternalSubset
                0x0016ddb2                _setDocumentLocator
                0x0016dcea                _notationDecl
                0x0016e20a                _cdataBlock
                0x0016de8c                _startElement
                0x0016d440                _xmlNamespaceParseNSDef
                0x0016dbc4                _entityDecl
                0x0016de08                _endDocument
                0x0016ddea                _startDocument
                0x0016db18                _getEntity
                0x0016d3dc                _xmlNamespaceParseQName
                0x0016e130                _checkNamespace
                0x0016dac4                _resolveEntity
                0x0016ca64                _xmlInitializePredefinedEntities
                0x0016e1b8                _comment
                0x0016d61c                _xmlHandleEntity
                0x0016d6d4                _xmlUpgradeOldNs
                0x0016d676                _xmlNewGlobalNs
                0x0016d75e                _xmlEncodeEntities
                0x0016cabe                _xmlGetFeature
                0x0016e05a                _globalNamespace
 .text          0x0016e254      0x8c4 /mnt/e/usr/local/amiga/m68k-amigaos/clib/extra/ns-lib/libxml2.a(chvalid.o)
                0x0016ea60                _xmlIsDigit
                0x0016ea8c                _xmlIsExtender
                0x0016eaf8                _xmlIsPubidChar
                0x0016e7c0                _xmlIsPubidChar_tab
                0x0016ea40                _xmlIsCombining
                0x0016e2a8                _xmlIsDigitGroup
                0x0016e95c                _xmlIsBaseChar
                0x0016eab8                _xmlIsIdeographic
                0x0016e9e0                _xmlIsChar
                0x0016e49c                _xmlIsBaseCharGroup
                0x0016e9b0                _xmlIsBlank
                0x0016e254                _xmlIsIdeographicGroup
                0x0016e8c0                _xmlCharInRange
                0x0016e2f0                _xmlIsCombiningGroup
                0x0016e270                _xmlIsExtenderGroup
                0x0016e47c                _xmlIsCharGroup
 .text          0x0016eb18     0x2908 /mnt/e/usr/local/amiga/m68k-amigaos/clib/extra/ns-lib/libxml2.a(pattern.o)
                0x001701f6                _xmlStreamPush
                0x001713ec                _xmlPatternFromRoot
                0x0016fc44                _xmlFreeStreamCtxt
                0x00171326                _xmlPatternStreamable
                0x0017134c                _xmlPatternMaxDepth
                0x001702ba                _xmlStreamWantsAnyNode
                0x001702e4                _xmlPatterncompile
                0x00170212                _xmlStreamPushNode
                0x001713ac                _xmlPatternMinDepth
                0x0016ec7a                _xmlFreePatternList
                0x00170e4e                _xmlPatternMatch
                0x0016eb64                _xmlFreePattern
                0x0017024a                _xmlStreamPop
                0x0017022e                _xmlStreamPushAttr
                0x00171270                _xmlPatternGetStreamCtxt
 .text          0x00171420     0x380c /mnt/e/usr/local/amiga/m68k-amigaos/clib/extra/ns-lib/libxml2.a(xmlsave.o)
                0x00174b18                _xmlSaveFormatFileEnc
                0x0017472c                _xmlElemDump
                0x0017152a                _xmlIsXHTML
                0x00171d1c                _xmlBufAttrSerializeTxtContent
                0x0017219a                _xmlBufDumpElementDecl
                0x001744da                _xmlSaveSetAttrEscape
                0x00174916                _xmlDocDumpFormatMemory
                0x001744f4                _xmlAttrSerializeTxtContent
                0x00174a00                _xmlDocDump
                0x00174494                _xmlSaveClose
                0x001721fa                _xmlBufDumpEntityDecl
                0x0017434a                _xmlSaveToBuffer
                0x001721ca                _xmlBufDumpAttributeDecl
                0x0017216a                _xmlBufDumpNotationTable
                0x001724ea                _xmlNsListDumpOutput
                0x00174bf8                _xmlSaveFormatFile
                0x001742b6                _xmlSaveToFd
                0x00174474                _xmlSaveFlush
                0x00174bde                _xmlSaveFileEnc
                0x001747b2                _xmlDocDumpFormatMemoryEnc
                0x00174952                _xmlDocFormatDump
                0x001748fa                _xmlDocDumpMemory
                0x00174a16                _xmlSaveFileTo
                0x0017453e                _xmlNodeDumpOutput
                0x0017444e                _xmlSaveTree
                0x001744c0                _xmlSaveSetEscape
                0x00174422                _xmlSaveDoc
                0x00174606                _xmlBufNodeDump
                0x00174934                _xmlDocDumpMemoryEnc
                0x001742fe                _xmlSaveToFilename
                0x001743d0                _xmlSaveToIO
                0x00174c12                _xmlSaveFile
                0x001746ce                _xmlNodeDump
                0x00174a88                _xmlSaveFormatFileTo
 .text          0x00174c2c     0x2014 /mnt/e/usr/local/amiga/m68k-amigaos/clib/extra/ns-lib/libxml2.a(schematron.o)
                0x00175100                _xmlSchematronNewMemParserCtxt
                0x00174e0a                _xmlSchematronFree
                0x00174fb4                _xmlSchematronFreeParserCtxt
                0x001762f6                _xmlSchematronFreeValidCtxt
                0x001762d2                _xmlSchematronSetValidStructuredErrors
                0x00175072                _xmlSchematronNewDocParserCtxt
                0x00175192                _xmlSchematronNewParserCtxt
                0x00176a28                _xmlSchematronValidateDoc
                0x0017556e                _xmlSchematronParse
                0x00176360                _xmlSchematronNewValidCtxt
 .text          0x00176c40     0x1264 lib/libnsgif-0.0.3.a(src_libnsgif.o)
                0x00177600                _gif_decode_frame
                0x00176cce                _gif_initialise
                0x00176c74                _gif_finalise
                0x00176c40                _gif_create
 .text          0x00177ea4     0x16cc lib/libnsbmp-0.0.2.a(src_libnsbmp.o)
                0x00177ece                _ico_collection_create
                0x0017869e                _bmp_analyse
                0x00178504                _ico_analyse
                0x001794cc                _bmp_decode_trans
                0x00179524                _ico_finalise
                0x00177ea4                _bmp_create
                0x001790d4                _bmp_decode
                0x001794e6                _bmp_finalise
                0x00178726                _ico_find
 .text          0x00179570      0x748 /opt/netsurf/m68k-unknown-amigaos/env/lib/libtre.a(regexec.o)
                0x00179570                _tre_fill_pmatch
                0x001799fe                _tre_regexec
                0x00179a24                _tre_reguexec
                0x00179bfc                _tre_regaexec
                0x00179c44                _tre_regaparams_default
                0x001799c2                _tre_regnexec
                0x00179ba0                _tre_reganexec
                0x001797e8                _tre_have_approx
                0x001797ce                _tre_have_backrefs
 .text          0x00179cb8       0x78 /opt/netsurf/m68k-unknown-amigaos/env/lib/libtre.a(regcomp.o)
                0x00179ce2                _tre_regcomp
                0x00179d1c                _tre_regfree
                0x00179cb8                _tre_regncomp
 .text          0x00179d30      0x1b0 /opt/netsurf/m68k-unknown-amigaos/env/lib/libtre.a(regerror.o)
                0x00179e46                _tre_regerror
 .text          0x00179ee0     0x12dc /opt/netsurf/m68k-unknown-amigaos/env/lib/libtre.a(tre-match-backtrack.o)
                0x00179ee0                _tre_tnfa_run_backtrack
 .text          0x0017b1bc     0x1f50 /opt/netsurf/m68k-unknown-amigaos/env/lib/libtre.a(tre-match-approx.o)
                0x0017b1bc                _tre_tnfa_run_approx
 .text          0x0017d10c      0xfbc /opt/netsurf/m68k-unknown-amigaos/env/lib/libtre.a(tre-match-parallel.o)
                0x0017d10c                _tre_tnfa_run_parallel
 .text          0x0017e0c8     0x45d4 /opt/netsurf/m68k-unknown-amigaos/env/lib/libtre.a(tre-compile.o)
                0x00181b5e                _tre_compile
                0x00182614                _tre_config
                0x001825ce                _tre_version
                0x001823b2                _tre_free
 .text          0x0018269c      0x278 /opt/netsurf/m68k-unknown-amigaos/env/lib/libtre.a(tre-mem.o)
                0x001826f2                _tre_mem_destroy
                0x0018269c                _tre_mem_new_impl
                0x00182740                _tre_mem_alloc_impl
 .text          0x00182914      0x250 /opt/netsurf/m68k-unknown-amigaos/env/lib/libtre.a(tre-ast.o)
                0x00182a82                _tre_ast_new_union
                0x00182a02                _tre_ast_new_iter
                0x00182af2                _tre_ast_new_catenation
                0x001829a6                _tre_ast_new_literal
                0x00182914                _tre_ast_new_node
 .text          0x00182b64      0x208 /opt/netsurf/m68k-unknown-amigaos/env/lib/libtre.a(tre-stack.o)
                0x00182c10                _tre_stack_num_objects
                0x00182bec                _tre_stack_destroy
                0x00182d28                _tre_stack_pop_int
                0x00182d4a                _tre_stack_pop_voidptr
                0x00182d0c                _tre_stack_push_voidptr
                0x00182b64                _tre_stack_new
                0x00182cf0                _tre_stack_push_int
 .text          0x00182d6c     0x2e0c /opt/netsurf/m68k-unknown-amigaos/env/lib/libtre.a(tre-parse.o)
                0x001831a6                _tre_iscntrl_func
                0x0018312e                _tre_isalnum_func
                0x00183188                _tre_isblank_func
                0x0018314c                _tre_isalpha_func
                0x0018321e                _tre_isprint_func
                0x001831c4                _tre_isdigit_func
                0x00183296                _tre_isxdigit_func
                0x0018323c                _tre_ispunct_func
                0x0018316a                _tre_isascii_func
                0x001843dc                _tre_parse
                0x0018325a                _tre_isspace_func
                0x00183278                _tre_isupper_func
                0x00183304                _tre_ctype
                0x00183200                _tre_islower_func
                0x001831e2                _tre_isgraph_func
 .text          0x00185b78      0xb34 /opt/netsurf/m68k-unknown-amigaos/env/lib/libcurl.a(libcurl_la-parsedate.o)
                0x00186612                _curl_getdate
                0x00185bf4                _Curl_wkday
                0x0018664a                _Curl_getdate_capped
                0x00185ba8                _Curl_month
                0x0018668a                _Curl_gmtime
 .text          0x001866ac      0xb80 /opt/netsurf/m68k-unknown-amigaos/env/lib/libcurl.a(libcurl_la-easy.o)
                0x00186824                _curl_easy_init
                0x001869e8                _curl_easy_cleanup
                0x00186e58                _curl_easy_pause
                0x001870f8                _Curl_connect_only_attach
                0x0018707e                _curl_easy_recv
                0x001867cc                _curl_global_cleanup
                0x001871ec                _curl_easy_upkeep
                0x00186a0e                _curl_easy_getinfo
                0x0018680a                _curl_global_sslset
                0x00186738                _curl_global_init
                0x0018674c                _curl_global_init_mem
                0x0018688a                _curl_easy_perform
                0x001867f8                _curl_global_trace
                0x001871a8                _curl_easy_send
                0x00186a28                _curl_easy_duphandle
                0x00186dc4                _curl_easy_reset
                0x00187138                _Curl_senddata
 .text          0x0018722c     0x4930 /opt/netsurf/m68k-unknown-amigaos/env/lib/libcurl.a(libcurl_la-multi.o)
                0x0018b18c                _curl_multi_socket_all
                0x0018780e                _Curl_attach_connection
                0x0018b2f2                _curl_multi_remove_handle
                0x00189274                _curl_multi_wait
                0x00187630                _Curl_multiplex_wanted
                0x0018b570                _Curl_is_in_callback
                0x0018ac92                _curl_multi_perform
                0x00187dc2                _curl_multi_wakeup
                0x0018924c                _curl_multi_poll
                0x0018b532                _curl_multi_assign
                0x0018ab00                _curl_multi_cleanup
                0x0018af86                _Curl_multi_add_perform
                0x0018b6be                _Curl_multi_xfer_buf_borrow
                0x0018b244                _Curl_expire_clear
                0x0018b9ac                _Curl_multi_xfer_sockbuf_borrow
                0x00188570                _Curl_set_in_callback
                0x0018b1b6                _curl_multi_socket_action
                0x00188a48                _Curl_multi_closed
                0x001875f8                _curl_multi_init
                0x00188e0a                _Curl_update_timer
                0x00187cf0                _curl_multi_waitfds
                0x0018861e                _Curl_multi_pollset_ev
                0x00187be0                _curl_multi_fdset
                0x00188bd0                _curl_multi_setopt
                0x0018b1e0                _curl_multi_socket
                0x00188a28                _Curl_updatesocket
                0x0018b934                _Curl_multi_xfer_ulbuf_release
                0x0018ba72                _Curl_multi_xfer_sockbuf_release
                0x001885a4                _curl_multi_info_read
                0x0018ba88                _Curl_multi_get_handle
                0x00189572                _Curl_expire
                0x0018b59c                _Curl_multi_max_concurrent_streams
                0x00187e60                _Curl_multi_connchanged
                0x0018b208                _Curl_expire_done
                0x0018ae24                _curl_multi_add_handle
                0x0018b5ac                _curl_multi_get_handles
                0x00188eea                _curl_multi_timeout
                0x00187650                _Curl_detach_connection
                0x0018b7ae                _Curl_multi_xfer_buf_release
                0x001874b6                _Curl_multi_handle
                0x0018b844                _Curl_multi_xfer_ulbuf_borrow
 .text          0x0018bb5c     0x2aa4 /opt/netsurf/m68k-unknown-amigaos/env/lib/libcurl.a(libcurl_la-setopt.o)
                0x0018e5de                _curl_easy_setopt
                0x0018bbb6                _Curl_setblobopt
                0x0018bb5c                _Curl_setstropt
                0x0018c25c                _Curl_vsetopt
 .text          0x0018e600      0x2f4 /opt/netsurf/m68k-unknown-amigaos/env/lib/libcurl.a(libcurl_la-version.o)
                0x0018e85a                _curl_version_info
                0x0018e794                _curl_version
 .text          0x0018e8f4      0x120 /opt/netsurf/m68k-unknown-amigaos/env/lib/libcurl.a(libcurl_la-slist.o)
                0x0018e990                _curl_slist_free_all
                0x0018e8f4                _Curl_slist_append_nodup
                0x0018e9ce                _Curl_slist_duplicate
                0x0018e944                _curl_slist_append
 .text          0x0018ea14      0xe14 /opt/netsurf/m68k-unknown-amigaos/env/lib/libcurl.a(libcurl_la-formdata.o)
                0x0018ea90                _curl_formadd
                0x0018f490                _Curl_getformdata
                0x0018f358                _curl_formfree
                0x0018f76c                _curl_formget
 .text          0x0018f828     0x1880 /opt/netsurf/m68k-unknown-amigaos/env/lib/libcurl.a(libcurl_la-strerror.o)
                0x00191004                _Curl_strerror
                0x00190e6c                _curl_url_strerror
                0x0019043a                _curl_easy_strerror
                0x00190a8a                _curl_share_strerror
                0x0019095c                _curl_multi_strerror
 .text          0x001910a8      0x3f4 /opt/netsurf/m68k-unknown-amigaos/env/lib/libcurl.a(libcurl_la-escape.o)
                0x001913e8                _curl_unescape
                0x00191400                _curl_free
                0x00191370                _curl_easy_unescape
                0x0019123c                _Curl_urldecode
                0x00191426                _Curl_hexencode
                0x001910f2                _curl_easy_escape
                0x00191226                _curl_escape
 .text          0x0019149c       0xcc /opt/netsurf/m68k-unknown-amigaos/env/lib/libcurl.a(libcurl_la-warnless.o)
                0x0019155a                _curlx_sitouz
                0x0019153a                _curlx_sztosi
                0x001914c6                _curlx_uztosi
                0x0019152e                _curlx_sotouz
                0x001914aa                _curlx_ultouc
                0x00191502                _curlx_sltoui
                0x0019154c                _curlx_uitous
                0x001914f0                _curlx_sltosi
                0x001914e4                _curlx_uztoui
                0x0019150e                _curlx_sltous
                0x0019149c                _curlx_ultous
                0x001914d8                _curlx_uztoul
                0x0019151c                _curlx_uztosz
                0x001914b8                _curlx_uztoso
 .text          0x00191568      0x500 /opt/netsurf/m68k-unknown-amigaos/env/lib/libcurl.a(libcurl_la-strcase.o)
                0x00191782                _Curl_raw_tolower
                0x00191768                _Curl_raw_toupper
                0x001919f6                _Curl_timestrcmp
                0x00191970                _Curl_strntolower
                0x001919aa                _Curl_safecmp
                0x00191936                _Curl_strntoupper
                0x00191880                _curl_strnequal
                0x0019179c                _curl_strequal
 .text          0x00191a68      0x7bc /opt/netsurf/m68k-unknown-amigaos/env/lib/libcurl.a(libcurl_la-curl_trc.o)
                0x00191e3c                _Curl_trc_read
                0x00191a94                _Curl_debug
                0x00191f1a                _Curl_trc_smtp
                0x0019221a                _Curl_trc_init
                0x00191f64                _Curl_trc_ws
                0x00191ed0                _Curl_trc_ftp
                0x00191cea                _Curl_trc_cf_infof
                0x00192048                _Curl_trc_opt
                0x00191ca2                _Curl_infof
                0x00191e86                _Curl_trc_write
                0x00191b3c                _Curl_failf
 .text          0x00192224     0x3458 /opt/netsurf/m68k-unknown-amigaos/env/lib/libcurl.a(libcurl_la-vtls.o)
                0x00193d8c                _Curl_none_check_cxn
                0x0019367c                _Curl_ssl_version
                0x00193d9e                _Curl_none_session_free
                0x00193616                _Curl_ssl_engines_list
                0x00193dba                _Curl_none_set_engine
                0x001936f4                _Curl_ssl_init_certinfo
                0x00193dc4                _Curl_none_set_engine_default
                0x00194b76                _Curl_ssl_cfilter_add
                0x00193d72                _Curl_none_cleanup
                0x00193408                _Curl_ssl_close_all
                0x0019373e                _Curl_ssl_push_certinfo_len
                0x00193da6                _Curl_none_data_pending
                0x00192a08                _Curl_ssl_conn_config_update
                0x00192518                _Curl_ssl_conn_config_match
                0x00192df4                _Curl_ssl_getsessionid
                0x00192d08                _Curl_ssl_delsessionid
                0x00193698                _Curl_ssl_free_certinfo
                0x00194bbc                _Curl_cf_ssl_insert_after
                0x00193d68                _Curl_none_init
                0x00195074                _Curl_alpn_to_proto_str
                0x00193898                _Curl_pin_peer_pubkey
                0x001941be                _Curl_init_sslset_nolock
                0x001953ce                _Curl_alpn_set_negotiated
                0x001933e0                _Curl_ssl_get_channel_binding
                0x00192c72                _Curl_ssl_sessionid_unlock
                0x00194fc4                _Curl_alpn_to_proto_buf
                0x001934e2                _Curl_ssl_adjust_pollset
                0x00193d96                _Curl_none_close_all
                0x00194bfc                _Curl_cf_ssl_proxy_insert_after
                0x00193de2                _Curl_ssl_cleanup
                0x00192c9e                _Curl_ssl_kill_session
                0x001928ae                _Curl_ssl_easy_config_complete
                0x00193808                _Curl_ssl_random
                0x0019426c                _Curl_ssl_peer_cleanup
                0x00192d3e                _Curl_ssl_cf_is_proxy
                0x001935fe                _Curl_ssl_set_engine_default
                0x001935e2                _Curl_ssl_set_engine
                0x00192a8e                _Curl_ssl_init
                0x0019512a                _Curl_alpn_contains_proto
                0x00194caa                _Curl_ssl_get_internals
                0x00192c40                _Curl_ssl_sessionid_lock
                0x001941a8                _Curl_ssl_backend
                0x00193d4e                _Curl_ssl_false_start
                0x00193d34                _Curl_ssl_cert_status_request
                0x00194dac                _Curl_ssl_cfilter_remove
                0x001930a6                _Curl_ssl_set_sessionid
                0x0019299a                _Curl_ssl_conn_config_init
                0x00192d64                _Curl_ssl_cf_get_primary_config
                0x00192d96                _Curl_ssl_cf_get_config
                0x00193d7a                _Curl_none_shutdown
                0x001942fc                _Curl_ssl_peer_init
                0x0019362e                _Curl_ssl_initsessions
                0x00194c8c                _Curl_ssl_supports
                0x00193dd8                _Curl_none_false_start
                0x00192398                _Curl_ssl_easy_config_init
                0x00193db0                _Curl_none_cert_status_request
                0x001929e0                _Curl_ssl_conn_config_cleanup
                0x00193dce                _Curl_none_engines_list
 .text          0x0019567c     0x4794 /opt/netsurf/m68k-unknown-amigaos/env/lib/libcurl.a(libcurl_la-url.o)
                0x00195f08                _Curl_conn_free
                0x0019568c                _Curl_freeset
                0x001983d6                _Curl_connect
                0x0019711e                _Curl_uc_to_curlcode
                0x00197068                _Curl_getn_scheme_handler
                0x00195c4a                _Curl_init_userdefined
                0x0019638c                _Curl_conn_upkeep
                0x00195dea                _Curl_open
                0x00196186                _Curl_conn_seems_dead
                0x00196062                _Curl_on_disconnect
                0x00197fa0                _Curl_setup_conn
                0x0019801e                _Curl_init_do
                0x001957de                _Curl_close
                0x00196d78                _Curl_verboseconnect
                0x00197698                _Curl_parse_login_details
                0x001970fc                _Curl_get_scheme_handler
 .text          0x00199e10      0xa14 /opt/netsurf/m68k-unknown-amigaos/env/lib/libcurl.a(libcurl_la-getinfo.o)
                0x00199e10                _Curl_initinfo
                0x00199f0e                _Curl_getinfo
 .text          0x0019a824     0x2d24 /opt/netsurf/m68k-unknown-amigaos/env/lib/libcurl.a(libcurl_la-mime.o)
                0x0019bb08                _curl_mime_headers
                0x0019c4c6                _Curl_mime_add_header
                0x0019c314                _Curl_mime_read
                0x0019bbc2                _curl_mime_name
                0x0019c838                _Curl_mime_prepare_headers
                0x0019bc16                _curl_mime_filename
                0x0019c146                _curl_mime_subparts
                0x0019c5fc                _Curl_mime_contenttype
                0x0019bcf6                _Curl_mime_cleanpart
                0x0019c15e                _Curl_mime_duppart
                0x0019bb6e                _curl_mime_type
                0x0019baaa                _curl_mime_data_cb
                0x0019c098                _Curl_mime_set_subparts
                0x0019d4cc                _Curl_creader_set_mime
                0x0019be9a                _curl_mime_data
                0x0019be04                _curl_mime_init
                0x0019c03c                _curl_mime_encoder
                0x0019bd74                _curl_mime_free
                0x0019bf2a                _curl_mime_filedata
                0x0019bc9a                _curl_mime_addpart
                0x0019bc6a                _Curl_mime_initpart
 .text          0x0019d548       0xc0 /opt/netsurf/m68k-unknown-amigaos/env/lib/libcurl.a(libcurl_la-strdup.o)
                0x0019d548                _Curl_memdup
                0x0019d5c8                _Curl_saferealloc
                0x0019d584                _Curl_memdup0
 .text          0x0019d608      0x24c /opt/netsurf/m68k-unknown-amigaos/env/lib/libcurl.a(libcurl_la-dynbuf.o)
                0x0019d830                _Curl_dyn_setlen
                0x0019d776                _Curl_dyn_addn
                0x0019d812                _Curl_dyn_uptr
                0x0019d804                _Curl_dyn_ptr
                0x0019d7b4                _Curl_dyn_vaddf
                0x0019d820                _Curl_dyn_len
                0x0019d78e                _Curl_dyn_add
                0x0019d718                _Curl_dyn_tail
                0x0019d6fe                _Curl_dyn_reset
                0x0019d624                _Curl_dyn_free
                0x0019d608                _Curl_dyn_init
                0x0019d7ee                _Curl_dyn_addf
 .text          0x0019d854      0xd24 /opt/netsurf/m68k-unknown-amigaos/env/lib/libcurl.a(libcurl_la-hsts.o)
                0x0019d8ae                _Curl_hsts_cleanup
                0x0019db0a                _Curl_hsts_parse
                0x0019e518                _Curl_hsts_loadfiles
                0x0019e242                _Curl_hsts_loadfile
                0x0019deb8                _Curl_hsts_save
                0x0019e404                _Curl_hsts_loadcb
                0x0019d9c2                _Curl_hsts
                0x0019d854                _Curl_hsts_init
 .text          0x0019e578      0x208 /opt/netsurf/m68k-unknown-amigaos/env/lib/libcurl.a(libcurl_la-llist.o)
                0x0019e752                _Curl_node_elem
                0x0019e762                _Curl_node_next
                0x0019e734                _Curl_llist_head
                0x0019e742                _Curl_llist_count
                0x0019e616                _Curl_llist_append
                0x0019e772                _Curl_node_llist
                0x0019e578                _Curl_llist_init
                0x0019e6fa                _Curl_llist_destroy
                0x0019e594                _Curl_llist_insert_next
                0x0019e6e8                _Curl_node_remove
                0x0019e634                _Curl_node_uremove
 .text          0x0019e780      0xfd0 /opt/netsurf/m68k-unknown-amigaos/env/lib/libcurl.a(libcurl_la-altsvc.o)
                0x0019f0b6                _Curl_altsvc_parse
                0x0019eb8e                _Curl_altsvc_cleanup
                0x0019ecb4                _Curl_altsvc_save
                0x0019e9b2                _Curl_altsvc_load
                0x0019e946                _Curl_altsvc_init
                0x0019e7f6                _Curl_alpnid2str
                0x0019f69e                _Curl_altsvc_lookup
                0x0019eb7a                _Curl_altsvc_ctrl
 .text          0x0019f750     0x21dc /opt/netsurf/m68k-unknown-amigaos/env/lib/libcurl.a(libcurl_la-cookie.o)
                0x001a13ba                _Curl_cookie_cleanup
                0x0019fc8a                _Curl_cookie_add
                0x001a0bcc                _Curl_cookie_init
                0x001a164a                _Curl_flush_cookies
                0x001a12c6                _Curl_cookie_clearall
                0x001a14b4                _Curl_cookie_list
                0x001a133a                _Curl_cookie_clearsess
                0x001a0de8                _Curl_cookie_loadfiles
                0x001a0fc4                _Curl_cookie_getlist
 .text          0x001a192c      0xa54 /opt/netsurf/m68k-unknown-amigaos/env/lib/libcurl.a(libcurl_la-request.o)
                0x001a21ca                _Curl_req_done_sending
                0x001a20c4                _Curl_req_done
                0x001a2368                _Curl_req_stop_send_recv
                0x001a1a0c                _Curl_req_start
                0x001a1a32                _Curl_req_hard_reset
                0x001a2146                _Curl_req_sendbuf_empty
                0x001a2332                _Curl_req_abort_sending
                0x001a1942                _Curl_req_soft_reset
                0x001a192c                _Curl_req_init
                0x001a21f4                _Curl_req_send_more
                0x001a217a                _Curl_req_want_send
                0x001a2278                _Curl_req_send
                0x001a1d54                _Curl_req_set_upload_done
                0x001a1b2c                _Curl_req_free
 .text          0x001a2380      0x260 /opt/netsurf/m68k-unknown-amigaos/env/lib/libcurl.a(libcurl_la-http_digest.o)
                0x001a2388                _Curl_input_digest
                0x001a244a                _Curl_output_digest
                0x001a25b4                _Curl_http_auth_cleanup_digest
 .text          0x001a25e0     0x229c /opt/netsurf/m68k-unknown-amigaos/env/lib/libcurl.a(libcurl_la-sendf.o)
                0x001a4788                _Curl_creader_unpause
                0x001a2a04                _Curl_cwriter_def_write
                0x001a31fe                _Curl_cwriter_get_by_name
                0x001a43d6                _Curl_creader_needs_rewind
                0x001a33d4                _Curl_creader_def_resume_from
                0x001a2700                _Curl_cwriter_write
                0x001a3274                _Curl_cwriter_remove_by_name
                0x001a32fe                _Curl_creader_read
                0x001a291c                _Curl_client_start
                0x001a33ac                _Curl_creader_def_total_length
                0x001a4472                _Curl_creader_set_null
                0x001a33a2                _Curl_creader_def_needs_rewind
                0x001a3176                _Curl_client_write
                0x001a46fa                _Curl_creader_client_length
                0x001a27c6                _Curl_client_cleanup
                0x001a32ec                _Curl_cwriter_unpause
                0x001a3008                _Curl_cwriter_count
                0x001a334e                _Curl_creader_def_close
                0x001a33de                _Curl_creader_def_rewind
                0x001a473e                _Curl_creader_resume_from
                0x001a46ce                _Curl_creader_total_length
                0x001a29fa                _Curl_cwriter_def_init
                0x001a3d50                _Curl_creader_create
                0x001a429e                _Curl_creader_set
                0x001a2a28                _Curl_cwriter_def_close
                0x001a3356                _Curl_creader_def_read
                0x001a47c8                _Curl_creader_is_paused
                0x001a41a6                _Curl_creader_add
                0x001a29bc                _Curl_creader_will_rewind
                0x001a4308                _Curl_client_read
                0x001a2fd4                _Curl_cwriter_free
                0x001a3246                _Curl_cwriter_get_by_type
                0x001a33f2                _Curl_creader_def_is_paused
                0x001a4632                _Curl_creader_set_buf
                0x001a3042                _Curl_cwriter_add
                0x001a33fc                _Curl_creader_def_done
                0x001a282c                _Curl_client_reset
                0x001a484c                _Curl_creader_get_by_type
                0x001a33e8                _Curl_creader_def_unpause
                0x001a29d6                _Curl_creader_set_rewind
                0x001a32d4                _Curl_cwriter_is_paused
                0x001a410a                _Curl_creader_set_fread
                0x001a2f5a                _Curl_cwriter_create
                0x001a480c                _Curl_creader_done
                0x001a3344                _Curl_creader_def_init
                0x001a3dca                _Curl_creader_free
 .text          0x001a487c     0x1504 /opt/netsurf/m68k-unknown-amigaos/env/lib/libcurl.a(libcurl_la-cfilters.o)
                0x001a554c                _Curl_conn_flush
                0x001a59e8                _Curl_conn_get_max_concurrent
                0x001a51e8                _Curl_conn_data_pending
                0x001a4fea                _Curl_conn_cf_connect
                0x001a59ba                _Curl_conn_keep_alive
                0x001a50be                _Curl_conn_is_connected
                0x001a5d30                _Curl_pollset_check
                0x001a5afc                _Curl_conn_send
                0x001a5366                _Curl_conn_adjust_pollset
                0x001a5b7a                _Curl_pollset_change
                0x001a5578                _Curl_conn_cf_get_socket
                0x001a56e0                _Curl_conn_ev_data_attach
                0x001a54de                _Curl_conn_cf_cntrl
                0x001a4a28                _Curl_conn_cf_discard_chain
                0x001a4d34                _Curl_cf_recv
                0x001a4992                _Curl_cf_def_conn_is_alive
                0x001a4924                _Curl_cf_def_send
                0x001a573e                _Curl_conn_ev_data_idle
                0x001a4b32                _Curl_conn_shutdown
                0x001a48e4                _Curl_cf_def_adjust_pollset
                0x001a55e0                _Curl_conn_get_socket
                0x001a5134                _Curl_conn_cf_is_ssl
                0x001a4dd4                _Curl_cf_send
                0x001a5a34                _Curl_conn_get_stream_error
                0x001a488e                _Curl_cf_def_get_host
                0x001a487c                _Curl_cf_def_shutdown
                0x001a528e                _Curl_conn_needs_flush
                0x001a5970                _Curl_conn_is_alive
                0x001a4f22                _Curl_conn_cf_insert_after
                0x001a5248                _Curl_conn_cf_needs_flush
                0x001a5c34                _Curl_pollset_set
                0x001a55b2                _Curl_conn_cf_get_ip_info
                0x001a52b4                _Curl_conn_cf_adjust_pollset
                0x001a5c88                _Curl_pollset_add_socks
                0x001a50ea                _Curl_conn_is_ip_connected
                0x001a575e                _Curl_conn_ev_data_done_send
                0x001a5a80                _Curl_conn_sockindex
                0x001a5886                _Curl_conn_connect
                0x001a5630                _Curl_conn_forget_socket
                0x001a53a4                _Curl_conn_cf_poll
                0x001a4960                _Curl_cf_def_recv
                0x001a48ec                _Curl_cf_def_data_pending
                0x001a4e64                _Curl_cf_create
                0x001a503c                _Curl_conn_cf_send
                0x001a501a                _Curl_conn_cf_close
                0x001a5082                _Curl_conn_cf_recv
                0x001a5168                _Curl_conn_is_ssl
                0x001a57a8                _Curl_conn_ev_data_pause
                0x001a5ab0                _Curl_conn_recv
                0x001a4ea6                _Curl_conn_cf_add
                0x001a519c                _Curl_conn_is_multiplex
                0x001a5b4e                _Curl_pollset_reset
                0x001a4a74                _Curl_conn_cf_discard_all
                0x001a571e                _Curl_conn_ev_data_setup
                0x001a4a92                _Curl_conn_close
                0x001a56fe                _Curl_conn_ev_data_detach
                0x001a5780                _Curl_conn_ev_data_done
                0x001a54d4                _Curl_cf_def_cntrl
                0x001a4f58                _Curl_conn_cf_discard_sub
                0x001a49d0                _Curl_cf_def_conn_keep_alive
                0x001a49f6                _Curl_cf_def_query
                0x001a5474                _Curl_conn_get_host
 .text          0x001a5d80     0x1fd0 /opt/netsurf/m68k-unknown-amigaos/env/lib/libcurl.a(libcurl_la-connect.o)
                0x001a7c7a                _Curl_cf_setup_insert_after
                0x001a5da6                _Curl_timeleft
                0x001a7cba                _Curl_conn_setup
                0x001a602e                _Curl_shutdown_clear
                0x001a5fa6                _Curl_conn_shutdown_timeleft
                0x001a60d6                _Curl_addr2string
                0x001a61a0                _Curl_conncontrol
                0x001a5ea4                _Curl_shutdown_start
                0x001a5f00                _Curl_shutdown_timeleft
                0x001a6050                _Curl_shutdown_started
                0x001a6136                _Curl_getconnectinfo
 .text          0x001a7d50     0x1d70 /opt/netsurf/m68k-unknown-amigaos/env/lib/libcurl.a(libcurl_la-conncache.o)
                0x001a9418                _Curl_cpool_destroy
                0x001a86f6                _Curl_cpool_add_pollfds
                0x001a8a38                _Curl_cpool_multi_perform
                0x001a7d72                _Curl_cpool_init
                0x001a90a4                _Curl_cpool_check_limits
                0x001a9a16                _Curl_cpool_do_locked
                0x001a92f4                _Curl_cpool_multi_socket
                0x001a986a                _Curl_cpool_get_conn
                0x001a83c0                _Curl_cpool_find
                0x001a8d7e                _Curl_cpool_disconnect
                0x001a7e42                _Curl_cpool_xfer_init
                0x001a878a                _Curl_cpool_add_waitfds
                0x001a978a                _Curl_cpool_upkeep
                0x001a7fae                _Curl_cpool_add_conn
                0x001a8f82                _Curl_cpool_conn_now_idle
                0x001a968a                _Curl_cpool_prune_dead
                0x001a9962                _Curl_cpool_do_by_id
 .text          0x001a9ac0     0x1590 /opt/netsurf/m68k-unknown-amigaos/env/lib/libcurl.a(libcurl_la-progress.o)
                0x001aa20c                _Curl_pgrsTimeWas
                0x001aafde                _Curl_pgrsDone
                0x001aa1e0                _Curl_pgrsResetTransferSizes
                0x001aa374                _Curl_pgrsLimitWaitTime
                0x001aa65c                _Curl_pgrsEarlyData
                0x001aa4fe                _Curl_pgrsSetDownloadCounter
                0x001aa5ca                _Curl_pgrsStartNow
                0x001aa640                _Curl_pgrsSetUploadCounter
                0x001aa174                _Curl_pgrsSetDownloadSize
                0x001aa336                _Curl_pgrsTime
                0x001aa1aa                _Curl_pgrsSetUploadSize
                0x001aa51c                _Curl_ratelimit
                0x001ab02c                _Curl_pgrsUpdate_nometer
                0x001aab80                _Curl_pgrsUpdate
 .text          0x001ab050     0x140c /opt/netsurf/m68k-unknown-amigaos/env/lib/libcurl.a(libcurl_la-transfer.o)
                0x001aba6c                _Curl_xfer_write_resp
                0x001ab98a                _Curl_xfer_setup_nop
                0x001ab9b0                _Curl_xfer_setup1
                0x001ab196                _Curl_xfer_send_shutdown
                0x001abb34                _Curl_xfer_write_resp_hd
                0x001ab258                _Curl_pretransfer
                0x001abc08                _Curl_xfer_send
                0x001ab6de                _Curl_retry_request
                0x001abbd2                _Curl_xfer_flush
                0x001abcb0                _Curl_xfer_recv
                0x001ac3f4                _Curl_xfer_is_blocked
                0x001abb96                _Curl_xfer_needs_flush
                0x001ab9f0                _Curl_xfer_setup2
                0x001ac3e0                _Curl_xfer_send_close
                0x001ab1e2                _Curl_init_CONNECT
                0x001abb84                _Curl_xfer_write_done
                0x001ab100                _Curl_meets_timecondition
                0x001abe08                _Curl_sendrecv
                0x001ab050                _Curl_checkheaders
 .text          0x001ac45c      0x5a8 /opt/netsurf/m68k-unknown-amigaos/env/lib/libcurl.a(libcurl_la-hash.o)
                0x001ac854                _Curl_hash_clean
                0x001ac868                _Curl_hash_count
                0x001ac878                _Curl_hash_str
                0x001ac9d4                _Curl_hash_offt_remove
                0x001ac9b8                _Curl_hash_offt_set
                0x001ac61e                _Curl_hash_add
                0x001ac6ca                _Curl_hash_pick
                0x001ac4b4                _Curl_hash_init
                0x001ac8ec                _Curl_hash_start_iterate
                0x001ac63c                _Curl_hash_delete
                0x001ac904                _Curl_hash_next_element
                0x001ac4de                _Curl_hash_add2
                0x001ac8ba                _Curl_str_key_compare
                0x001ac74a                _Curl_hash_destroy
                0x001ac7ba                _Curl_hash_clean_with_criterium
                0x001ac998                _Curl_hash_offt_init
                0x001ac9ec                _Curl_hash_offt_get
 .text          0x001aca04     0x1600 /opt/netsurf/m68k-unknown-amigaos/env/lib/libcurl.a(libcurl_la-hostip.o)
                0x001ad128                _Curl_init_dnscache
                0x001adf46                _Curl_once_resolved
                0x001adaa2                _Curl_resolv
                0x001ad062                _Curl_host_is_ipnum
                0x001ad2d2                _Curl_loadhostpairs
                0x001acd52                _Curl_fetch_addr
                0x001acacc                _Curl_hostcache_prune
                0x001adebe                _Curl_resolv_timeout
                0x001adf3c                _Curl_resolv_getsock
                0x001ad14e                _Curl_hostcache_clean
                0x001ad0c4                _Curl_resolv_unlink
                0x001aca04                _Curl_printable_address
                0x001ad9dc                _Curl_resolv_check
                0x001acdd2                _Curl_cache_addr
                0x001adfc0                _Curl_resolver_error
 .text          0x001ae004      0x2ac /opt/netsurf/m68k-unknown-amigaos/env/lib/libcurl.a(libcurl_la-socketpair.o)
                0x001ae004                _Curl_socketpair
 .text          0x001ae2b0      0x6f8 /opt/netsurf/m68k-unknown-amigaos/env/lib/libcurl.a(libcurl_la-select.o)
                0x001ae330                _Curl_poll
                0x001ae8f6                _Curl_waitfds_add_ps
                0x001ae8d8                _Curl_waitfds_init
                0x001ae704                _Curl_pollfds_cleanup
                0x001ae2b0                _Curl_wait_ms
                0x001ae858                _Curl_pollfds_add_ps
                0x001ae5b6                _Curl_socket_check
                0x001ae6d8                _Curl_pollfds_init
                0x001ae83c                _Curl_pollfds_add_sock
 .text          0x001ae9a8     0x28c4 /opt/netsurf/m68k-unknown-amigaos/env/lib/libcurl.a(libcurl_la-urlapi.o)
                0x001aec0c                _Curl_is_absolute_url
                0x001afee8                _curl_url_dup
                0x001af3bc                _Curl_url_set_authority
                0x001afec2                _curl_url_cleanup
                0x001afeaa                _curl_url
                0x001b0868                _curl_url_set
                0x001b013a                _curl_url_get
 .text          0x001b126c      0x230 /opt/netsurf/m68k-unknown-amigaos/env/lib/libcurl.a(libcurl_la-timeval.o)
                0x001b126c                _Curl_now
                0x001b1402                _Curl_timediff_us
                0x001b129c                _Curl_timediff
                0x001b134e                _Curl_timediff_ceil
 .text          0x001b149c      0x38c /opt/netsurf/m68k-unknown-amigaos/env/lib/libcurl.a(libcurl_la-splay.o)
                0x001b1804                _Curl_splayset
                0x001b171c                _Curl_splayremove
                0x001b1816                _Curl_splayget
                0x001b149c                _Curl_splay
                0x001b15a4                _Curl_splayinsert
                0x001b167c                _Curl_splaygetbest
 .text          0x001b1828      0x6ac /opt/netsurf/m68k-unknown-amigaos/env/lib/libcurl.a(libcurl_la-netrc.o)
                0x001b1eb4                _Curl_netrc_cleanup
                0x001b1dec                _Curl_parsenetrc
                0x001b1e8e                _Curl_netrc_init
 .text          0x001b1ed4     0x66f4 /opt/netsurf/m68k-unknown-amigaos/env/lib/libcurl.a(libcurl_la-http.o)
                0x001b5f70                _Curl_http_decode_status
                0x001b30a4                _Curl_http_connect
                0x001b6afe                _Curl_http_req_complete
                0x001b67ba                _Curl_http_resp_free
                0x001b2008                _Curl_http_setup_conn
                0x001b3ab0                _Curl_http_useragent
                0x001b1f34                _Curl_handler_http
                0x001b3d7c                _Curl_http_target
                0x001b6816                _Curl_http_resp_make
                0x001b6558                _Curl_http_req_to_h2
                0x001b326e                _Curl_dynhds_add_custom
                0x001b4072                _Curl_http_req_set_reader
                0x001b73f6                _Curl_http_exp100_is_selected
                0x001b3a20                _Curl_http_method
                0x001b30d2                _Curl_http_getsock_do
                0x001b2bba                _Curl_http_output_auth
                0x001b856c                _Curl_http_write_resp_hd
                0x001b2fee                _Curl_compareheader
                0x001b5d58                _Curl_http_size
                0x001b485c                _Curl_http_range
                0x001b4bd0                _Curl_transferencode
                0x001b3108                _Curl_http_done
                0x001b3556                _Curl_add_custom_headers
                0x001b5e56                _Curl_bump_headersize
                0x001b6e86                _Curl_http
                0x001b8258                _Curl_http_write_resp_hds
                0x001b7418                _Curl_http_exp100_got100
                0x001b38f8                _Curl_add_timecondition
                0x001b84f6                _Curl_http_write_resp
                0x001b204c                _Curl_checkProxyheaders
                0x001b1eda                _Curl_handler_https
                0x001b2d6a                _Curl_http_input_auth
                0x001b20c4                _Curl_copy_header_value
                0x001b4fa6                _Curl_http_header
                0x001b3194                _Curl_use_http_1_1plus
                0x001b6420                _Curl_http_req_make
                0x001b5fca                _Curl_http_req_free
                0x001b2590                _Curl_http_auth_act
                0x001b5b3e                _Curl_http_statusline
                0x001b44f8                _Curl_http_cookies
                0x001b3b1e                _Curl_http_host
                0x001b6032                _Curl_http_req_make2
                0x001b4a54                _Curl_http_firstwrite
 .text          0x001b85c8      0x134 /opt/netsurf/m68k-unknown-amigaos/env/lib/libcurl.a(libcurl_la-speedcheck.o)
                0x001b862a                _Curl_speedcheck
                0x001b85c8                _Curl_speedinit
 .text          0x001b86fc     0x1088 /opt/netsurf/m68k-unknown-amigaos/env/lib/libcurl.a(libcurl_la-ftplistparser.o)
                0x001b8976                _Curl_ftp_parselist
                0x001b8736                _Curl_wildcard_dtor
                0x001b87c6                _Curl_ftp_parselist_data_free
                0x001b87ae                _Curl_ftp_parselist_data_alloc
                0x001b87fe                _Curl_ftp_parselist_geterror
                0x001b870e                _Curl_wildcard_init
 .text          0x001b9784     0x2930 /opt/netsurf/m68k-unknown-amigaos/env/lib/libcurl.a(libcurl_la-cf-socket.o)
                0x001b979c                _Curl_sock_assign_addr
                0x001bbfe6                _Curl_conn_is_tcp_listen
                0x001bbeba                _Curl_conn_tcp_listen_set
                0x001b9946                _Curl_socket_close
                0x001bb4ca                _Curl_cf_tcp_create
                0x001b9972                _Curl_parse_interface
                0x001bb8d8                _Curl_cf_unix_create
                0x001bb844                _Curl_cf_udp_create
                0x001bc020                _Curl_cf_socket_peek
                0x001b988a                _Curl_socket_open
 .text          0x001bc0b4      0x408 /opt/netsurf/m68k-unknown-amigaos/env/lib/libcurl.a(libcurl_la-share.o)
                0x001bc0f8                _curl_share_setopt
                0x001bc46e                _Curl_share_unlock
                0x001bc41e                _Curl_share_lock
                0x001bc0b4                _curl_share_init
                0x001bc2b0                _curl_share_cleanup
 .text          0x001bc4bc      0xf50 /opt/netsurf/m68k-unknown-amigaos/env/lib/libcurl.a(libcurl_la-content_encoding.o)
                0x001bd028                _Curl_build_unencoding_stack
                0x001bcd5e                _Curl_all_content_encodings
 .text          0x001bd40c     0x1468 /opt/netsurf/m68k-unknown-amigaos/env/lib/libcurl.a(libcurl_la-mprintf.o)
                0x001be7f8                _curl_mfprintf
                0x001be7d6                _curl_mprintf
                0x001be78c                _curl_msprintf
                0x001be6ec                _curl_mvaprintf
                0x001bd4ea                _curl_msnprintf
                0x001be612                _curl_mvsnprintf
                0x001be836                _curl_mvprintf
                0x001be6a6                _Curl_dyn_vprintf
                0x001be858                _curl_mvfprintf
                0x001be814                _curl_mvsprintf
                0x001be762                _curl_maprintf
 .text          0x001be874     0x19ec /opt/netsurf/m68k-unknown-amigaos/env/lib/libcurl.a(libcurl_la-doh.o)
                0x001bec0a                _Curl_doh_cleanup
                0x001bed7c                _Curl_doh_is_resolved
                0x001bf8da                _Curl_doh
                0x001beb6e                _Curl_doh_close
 .text          0x001c0260     0x17fc /opt/netsurf/m68k-unknown-amigaos/env/lib/libcurl.a(libcurl_la-cf-h1-proxy.o)
                0x001c1a22                _Curl_cf_h1_proxy_insert_after
 .text          0x001c1a5c      0x744 /opt/netsurf/m68k-unknown-amigaos/env/lib/libcurl.a(libcurl_la-http_proxy.o)
                0x001c1a68                _Curl_http_proxy_get_destination
                0x001c1fbc                _Curl_cf_http_proxy_get_host
                0x001c1b56                _Curl_http_proxy_create_CONNECT
                0x001c2138                _Curl_cf_http_proxy_insert_after
 .text          0x001c21a0      0x3e4 /opt/netsurf/m68k-unknown-amigaos/env/lib/libcurl.a(libcurl_la-cf-haproxy.o)
                0x001c24f6                _Curl_cf_haproxy_insert_after
 .text          0x001c2584     0x1b9c /opt/netsurf/m68k-unknown-amigaos/env/lib/libcurl.a(libcurl_la-socks.o)
                0x001c40e6                _Curl_cf_socks_proxy_insert_after
 .text          0x001c4120     0x10b4 /opt/netsurf/m68k-unknown-amigaos/env/lib/libcurl.a(libcurl_la-cf-https-connect.o)
                0x001c50a4                _Curl_cf_https_setup
 .text          0x001c51d4     0x77cc /opt/netsurf/m68k-unknown-amigaos/env/lib/libcurl.a(libcurl_la-openssl.o)
                0x001c51dc                _Curl_ssl_openssl
                0x001c6c82                _Curl_ssl_setup_x509_store
                0x001c69a4                _Curl_ossl_add_session
                0x001c9a1e                _Curl_oss_check_peer_cert
                0x001c7de2                _Curl_ossl_ctx_init
 .text          0x001cc9a0      0xab0 /opt/netsurf/m68k-unknown-amigaos/env/lib/libcurl.a(libcurl_la-bufq.o)
                0x001cd2a4                _Curl_bufq_write_pass
                0x001ccedc                _Curl_bufq_cwrite
                0x001ccbae                _Curl_bufq_len
                0x001cd214                _Curl_bufq_pass
                0x001ccb84                _Curl_bufq_reset
                0x001ccbe4                _Curl_bufq_space
                0x001ccc3e                _Curl_bufq_is_empty
                0x001ccaac                _Curl_bufcp_free
                0x001ccb56                _Curl_bufq_free
                0x001ccb1a                _Curl_bufq_init
                0x001ccf0c                _Curl_bufq_unwrite
                0x001cd34a                _Curl_bufq_sipn
                0x001cd1ae                _Curl_bufq_skip
                0x001cce40                _Curl_bufq_write
                0x001cd008                _Curl_bufq_read
                0x001cd14a                _Curl_bufq_peek_at
                0x001ccc68                _Curl_bufq_is_full
                0x001cd0dc                _Curl_bufq_peek
                0x001cd3da                _Curl_bufq_slurp
                0x001ccb34                _Curl_bufq_initp
                0x001ccafe                _Curl_bufq_init2
                0x001cd0ac                _Curl_bufq_cread
                0x001cca48                _Curl_bufcp_init
 .text          0x001cd450      0x3f8 /opt/netsurf/m68k-unknown-amigaos/env/lib/libcurl.a(libcurl_la-base64.o)
                0x001cd524                _Curl_base64_decode
                0x001cd826                _Curl_base64url_encode
                0x001cd806                _Curl_base64_encode
 .text          0x001cd848       0x30 /opt/netsurf/m68k-unknown-amigaos/env/lib/libcurl.a(libcurl_la-getenv.o)
                0x001cd848                _curl_getenv
 .text          0x001cd878      0x2c4 /opt/netsurf/m68k-unknown-amigaos/env/lib/libcurl.a(libcurl_la-inet_pton.o)
                0x001cd96e                _Curl_inet_pton
 .text          0x001cdb3c      0x810 /opt/netsurf/m68k-unknown-amigaos/env/lib/libcurl.a(libcurl_la-headers.o)
                0x001ce25e                _Curl_headers_init
                0x001cdb9e                _curl_easy_header
                0x001ce2e6                _Curl_headers_cleanup
                0x001cdd48                _curl_easy_nextheader
                0x001cde96                _Curl_headers_push
 .text          0x001ce34c      0x4e0 /opt/netsurf/m68k-unknown-amigaos/env/lib/libcurl.a(libcurl_la-http_ntlm.o)
                0x001ce5fc                _Curl_http_auth_cleanup_ntlm
                0x001ce374                _Curl_output_ntlm
                0x001ce680                _Curl_input_ntlm
 .text          0x001ce82c      0x9bc /opt/netsurf/m68k-unknown-amigaos/env/lib/libcurl.a(libcurl_la-file.o)
                0x001ce832                _Curl_handler_file
 .text          0x001cf1e8      0x348 /opt/netsurf/m68k-unknown-amigaos/env/lib/libcurl.a(libcurl_la-gopher.o)
                0x001cf24c                _Curl_handler_gopher
                0x001cf1f0                _Curl_handler_gophers
 .text          0x001cf530     0x22b8 /opt/netsurf/m68k-unknown-amigaos/env/lib/libcurl.a(libcurl_la-smtp.o)
                0x001cf590                _Curl_handler_smtp
                0x001cf536                _Curl_handler_smtps
 .text          0x001d17e8     0x1530 /opt/netsurf/m68k-unknown-amigaos/env/lib/libcurl.a(libcurl_la-smb.o)
                0x001d1846                _Curl_handler_smb
                0x001d17ee                _Curl_handler_smbs
 .text          0x001d2d18     0x204c /opt/netsurf/m68k-unknown-amigaos/env/lib/libcurl.a(libcurl_la-telnet.o)
                0x001d2d20                _Curl_handler_telnet
 .text          0x001d4d64     0x1c2c /opt/netsurf/m68k-unknown-amigaos/env/lib/libcurl.a(libcurl_la-tftp.o)
                0x001d4d6a                _Curl_handler_tftp
 .text          0x001d6990     0x63a0 /opt/netsurf/m68k-unknown-amigaos/env/lib/libcurl.a(libcurl_la-ftp.o)
                0x001d6996                _Curl_handler_ftps
                0x001d69ee                _Curl_handler_ftp
                0x001d7170                _Curl_GetFTPResponse
 .text          0x001dcd30     0x26d0 /opt/netsurf/m68k-unknown-amigaos/env/lib/libcurl.a(libcurl_la-imap.o)
                0x001dcd36                _Curl_handler_imaps
                0x001dcd90                _Curl_handler_imap
 .text          0x001df400     0x25cc /opt/netsurf/m68k-unknown-amigaos/env/lib/libcurl.a(libcurl_la-ws.o)
                0x001e0ab4                _curl_ws_recv
                0x001e0556                _Curl_ws_request
                0x001e197a                _curl_ws_meta
                0x001e06e0                _Curl_ws_accept
                0x001df404                _Curl_handler_wss
                0x001df45c                _Curl_handler_ws
                0x001e1212                _curl_ws_send
 .text          0x001e19cc     0x1780 /opt/netsurf/m68k-unknown-amigaos/env/lib/libcurl.a(libcurl_la-rtsp.o)
                0x001e2e20                _Curl_rtsp_parseheader
                0x001e19d2                _Curl_handler_rtsp
 .text          0x001e314c     0x1648 /opt/netsurf/m68k-unknown-amigaos/env/lib/libcurl.a(libcurl_la-pop3.o)
                0x001e3152                _Curl_handler_pop3s
                0x001e31ac                _Curl_handler_pop3
 .text          0x001e4794      0x5a8 /opt/netsurf/m68k-unknown-amigaos/env/lib/libcurl.a(libcurl_la-dict.o)
                0x001e479a                _Curl_handler_dict
 .text          0x001e4d3c     0x1040 /opt/netsurf/m68k-unknown-amigaos/env/lib/libcurl.a(libcurl_la-mqtt.o)
                0x001e4d42                _Curl_handler_mqtt
 .text          0x001e5d7c      0x2d4 /opt/netsurf/m68k-unknown-amigaos/env/lib/libcurl.a(libcurl_la-noproxy.o)
                0x001e5d7e                _Curl_check_noproxy
 .text          0x001e6050       0x38 /opt/netsurf/m68k-unknown-amigaos/env/lib/libcurl.a(libcurl_la-idn.o)
                0x001e6072                _Curl_idnconvert_hostname
                0x001e6050                _Curl_is_ASCII_name
 .text          0x001e6088      0x184 /opt/netsurf/m68k-unknown-amigaos/env/lib/libcurl.a(libcurl_la-rand.o)
                0x001e61a6                _Curl_rand_alnum
                0x001e6148                _Curl_rand_hex
                0x001e60e2                _Curl_rand_bytes
 .text          0x001e620c      0x27c /opt/netsurf/m68k-unknown-amigaos/env/lib/libcurl.a(libcurl_la-strtoofft.o)
                0x001e6270                _curlx_strtoofft
 .text          0x001e6488      0x1d0 /opt/netsurf/m68k-unknown-amigaos/env/lib/libcurl.a(libcurl_la-fopen.o)
                0x001e6496                _Curl_fopen
 .text          0x001e6658       0x24 /opt/netsurf/m68k-unknown-amigaos/env/lib/libcurl.a(libcurl_la-rename.o)
                0x001e6658                _Curl_rename
 .text          0x001e667c       0xa0 /opt/netsurf/m68k-unknown-amigaos/env/lib/libcurl.a(libcurl_la-curl_get_line.o)
                0x001e667e                _Curl_get_line
 .text          0x001e671c       0x34 /opt/netsurf/m68k-unknown-amigaos/env/lib/libcurl.a(libcurl_la-curl_memrchr.o)
                0x001e671c                _Curl_memrchr
 .text          0x001e6750     0x1464 /opt/netsurf/m68k-unknown-amigaos/env/lib/libcurl.a(libcurl_la-digest.o)
                0x001e7122                _Curl_auth_decode_digest_http_message
                0x001e7030                _Curl_auth_digest_cleanup
                0x001e6a6e                _Curl_auth_create_digest_md5_message
                0x001e6750                _Curl_auth_digest_get_pair
                0x001e7b30                _Curl_auth_create_digest_http_message
                0x001e69ac                _Curl_auth_is_digest_supported
 .text          0x001e7bb4      0x8e4 /opt/netsurf/m68k-unknown-amigaos/env/lib/libcurl.a(libcurl_la-cw-out.o)
                0x001e83e8                _Curl_cw_out_unpause
                0x001e82bc                _Curl_cw_out_is_paused
                0x001e8446                _Curl_cw_out_done
 .text          0x001e8498      0x2d4 /opt/netsurf/m68k-unknown-amigaos/env/lib/libcurl.a(libcurl_la-inet_ntop.o)
                0x001e8528                _Curl_inet_ntop
 .text          0x001e876c      0x21c /opt/netsurf/m68k-unknown-amigaos/env/lib/libcurl.a(libcurl_la-curl_addrinfo.o)
                0x001e879a                _Curl_he2ai
                0x001e8946                _Curl_str2addr
                0x001e876c                _Curl_freeaddrinfo
                0x001e88a0                _Curl_ip2addr
 .text          0x001e8988       0xd8 /opt/netsurf/m68k-unknown-amigaos/env/lib/libcurl.a(libcurl_la-hostip4.o)
                0x001e89fe                _Curl_getaddrinfo
                0x001e8988                _Curl_ipvalid
                0x001e89a2                _Curl_ipv4_resolve_r
 .text          0x001e8a60       0x34 /opt/netsurf/m68k-unknown-amigaos/env/lib/libcurl.a(libcurl_la-nonblock.o)
                0x001e8a60                _curlx_nonblock
 .text          0x001e8a94      0x134 /opt/netsurf/m68k-unknown-amigaos/env/lib/libcurl.a(libcurl_la-timediff.o)
                0x001e8a94                _curlx_mstotv
                0x001e8b50                _curlx_tvtoms
 .text          0x001e8bc8        0xc /opt/netsurf/m68k-unknown-amigaos/env/lib/libcurl.a(libcurl_la-vquic.o)
                0x001e8bc8                _Curl_conn_may_http3
 .text          0x001e8bd4     0x1698 /opt/netsurf/m68k-unknown-amigaos/env/lib/libcurl.a(libcurl_la-http_aws_sigv4.o)
                0x001e918e                _Curl_output_aws_sigv4
 .text          0x001ea26c      0x13c /opt/netsurf/m68k-unknown-amigaos/env/lib/libcurl.a(libcurl_la-vauth.o)
                0x001ea282                _Curl_auth_build_spn
                0x001ea344                _Curl_auth_allowed_to_host
                0x001ea2ec                _Curl_auth_user_contains_domain
 .text          0x001ea3a8      0x8ac /opt/netsurf/m68k-unknown-amigaos/env/lib/libcurl.a(libcurl_la-ntlm.o)
                0x001ea64a                _Curl_auth_cleanup_ntlm
                0x001ea6b0                _Curl_auth_create_ntlm_type1_message
                0x001ea3a8                _Curl_auth_is_ntlm_supported
                0x001ea7ee                _Curl_auth_create_ntlm_type3_message
                0x001ea44c                _Curl_auth_decode_ntlm_type2_message
 .text          0x001eac54      0x5cc /opt/netsurf/m68k-unknown-amigaos/env/lib/libcurl.a(libcurl_la-dynhds.o)
                0x001eac92                _Curl_dynhds_free
                0x001eafb2                _Curl_dynhds_h1_add_line
                0x001ead4e                _Curl_dynhds_count
                0x001eb174                _Curl_dynhds_h1_cadd_line
                0x001ead5e                _Curl_dynhds_set_opts
                0x001eb1b0                _Curl_dynhds_h1_dprint
                0x001eae1e                _Curl_dynhds_add
                0x001ead04                _Curl_dynhds_reset
                0x001eac68                _Curl_dynhds_init
                0x001ead90                _Curl_dynhds_get
                0x001ead70                _Curl_dynhds_getn
                0x001eadf8                _Curl_dynhds_cget
                0x001eaf7a                _Curl_dynhds_cadd
 .text          0x001eb220     0x10cc /opt/netsurf/m68k-unknown-amigaos/env/lib/libcurl.a(libcurl_la-http_chunks.o)
                0x001eb2f8                _Curl_httpchunk_free
                0x001eb30e                _Curl_httpchunk_is_done
                0x001eb228                _Curl_httpchunk_encoder
                0x001eb2b6                _Curl_httpchunk_reset
                0x001eb9a2                _Curl_httpchunk_read
                0x001eb270                _Curl_httpchunk_init
                0x001ec288                _Curl_httpchunk_add_reader
                0x001eb258                _Curl_httpchunk_unencoder
 .text          0x001ec2ec       0x44 /opt/netsurf/m68k-unknown-amigaos/env/lib/libcurl.a(libcurl_la-fileinfo.o)
                0x001ec304                _Curl_fileinfo_cleanup
                0x001ec2ec                _Curl_fileinfo_alloc
 .text          0x001ec330      0x738 /opt/netsurf/m68k-unknown-amigaos/env/lib/libcurl.a(libcurl_la-curl_fnmatch.o)
                0x001eca3e                _Curl_fnmatch
 .text          0x001eca68        0xc /opt/netsurf/m68k-unknown-amigaos/env/lib/libcurl.a(libcurl_la-if2ip.o)
                0x001eca68                _Curl_if2ip
 .text          0x001eca74      0x534 /opt/netsurf/m68k-unknown-amigaos/env/lib/libcurl.a(libcurl_la-http1.o)
                0x001eca74                _Curl_h1_req_parse_init
                0x001ecaaa                _Curl_h1_req_parse_free
                0x001ecf0e                _Curl_h1_req_write_head
                0x001ecaea                _Curl_h1_req_parse_read
 .text          0x001ecfa8      0x260 /opt/netsurf/m68k-unknown-amigaos/env/lib/libcurl.a(libcurl_la-keylog.o)
                0x001ed108                _Curl_tls_keylog_write
                0x001ed05a                _Curl_tls_keylog_enabled
                0x001ecfb8                _Curl_tls_keylog_open
                0x001ed070                _Curl_tls_keylog_write_line
                0x001ed03a                _Curl_tls_keylog_close
 .text          0x001ed208      0x140 /opt/netsurf/m68k-unknown-amigaos/env/lib/libcurl.a(libcurl_la-hostcheck.o)
                0x001ed23e                _Curl_cert_hostcheck
 .text          0x001ed348       0xd0 /opt/netsurf/m68k-unknown-amigaos/env/lib/libcurl.a(libcurl_la-bufref.o)
                0x001ed35e                _Curl_bufref_free
                0x001ed348                _Curl_bufref_init
                0x001ed38e                _Curl_bufref_set
                0x001ed3c4                _Curl_bufref_len
                0x001ed3d4                _Curl_bufref_memdup
                0x001ed3b4                _Curl_bufref_ptr
 .text          0x001ed418      0x170 /opt/netsurf/m68k-unknown-amigaos/env/lib/libcurl.a(libcurl_la-curl_range.o)
                0x001ed418                _Curl_range
 .text          0x001ed588      0x704 /opt/netsurf/m68k-unknown-amigaos/env/lib/libcurl.a(libcurl_la-pingpong.o)
                0x001ed588                _Curl_pp_state_timeout
                0x001ed7a8                _Curl_pp_init
                0x001ed8e6                _Curl_pp_sendf
                0x001edc54                _Curl_pp_moredata
                0x001edb80                _Curl_pp_needs_flush
                0x001ed7f4                _Curl_pp_vsendf
                0x001edb98                _Curl_pp_flushsend
                0x001ed926                _Curl_pp_readresp
                0x001edb58                _Curl_pp_getsock
                0x001ed65a                _Curl_pp_statemach
                0x001edc28                _Curl_pp_disconnect
 .text          0x001edc8c      0xc54 /opt/netsurf/m68k-unknown-amigaos/env/lib/libcurl.a(libcurl_la-curl_sasl.o)
                0x001eded0                _Curl_sasl_init
                0x001edd8c                _Curl_sasl_decode_mech
                0x001ede3e                _Curl_sasl_parse_url_auth_option
                0x001ee0ba                _Curl_sasl_can_authenticate
                0x001edd68                _Curl_sasl_cleanup
                0x001ee0ee                _Curl_sasl_start
                0x001ee4e0                _Curl_sasl_continue
 .text          0x001ee8e0       0x4c /opt/netsurf/m68k-unknown-amigaos/env/lib/libcurl.a(libcurl_la-curl_gethostname.o)
                0x001ee8e0                _Curl_gethostname
 .text          0x001ee92c       0x6c /opt/netsurf/m68k-unknown-amigaos/env/lib/libcurl.a(libcurl_la-curl_endian.o)
                0x001ee946                _Curl_read32_le
                0x001ee92c                _Curl_read16_le
                0x001ee97c                _Curl_read16_be
 .text          0x001ee998      0x61c /opt/netsurf/m68k-unknown-amigaos/env/lib/libcurl.a(libcurl_la-curl_ntlm_core.o)
                0x001eeabc                _Curl_ntlm_core_mk_lm_hash
                0x001eeba0                _Curl_ntlm_core_mk_nt_hash
                0x001eef38                _Curl_ntlm_core_mk_lmv2_resp
                0x001eea36                _Curl_ntlm_core_lm_resp
                0x001eec34                _Curl_ntlm_core_mk_ntlmv2_hash
                0x001eed1a                _Curl_ntlm_core_mk_ntlmv2_resp
 .text          0x001eefb4      0x19c /opt/netsurf/m68k-unknown-amigaos/env/lib/libcurl.a(libcurl_la-md5.o)
                0x001ef0f4                _Curl_MD5_update
                0x001eefc8                _Curl_HMAC_MD5
                0x001ef116                _Curl_MD5_final
                0x001ef044                _Curl_md5it
                0x001eefb4                _Curl_DIGEST_MD5
                0x001ef088                _Curl_MD5_init
 .text          0x001ef150      0x15c /opt/netsurf/m68k-unknown-amigaos/env/lib/libcurl.a(libcurl_la-curl_sha512_256.o)
                0x001ef22c                _Curl_sha512_256it
                0x001ef150                _Curl_HMAC_SHA512_256
 .text          0x001ef2ac      0x108 /opt/netsurf/m68k-unknown-amigaos/env/lib/libcurl.a(libcurl_la-sha256.o)
                0x001ef372                _Curl_sha256it
                0x001ef2ac                _Curl_HMAC_SHA256
 .text          0x001ef3b4      0x214 /opt/netsurf/m68k-unknown-amigaos/env/lib/libcurl.a(libcurl_la-hmac.o)
                0x001ef4f2                _Curl_HMAC_update
                0x001ef514                _Curl_HMAC_final
                0x001ef3b6                _Curl_HMAC_init
                0x001ef56e                _Curl_hmacit
 .text          0x001ef5c8      0x164 /opt/netsurf/m68k-unknown-amigaos/env/lib/libcurl.a(libcurl_la-cleartext.o)
                0x001ef71a                _Curl_auth_create_external_message
                0x001ef6f0                _Curl_auth_create_login_message
                0x001ef5c8                _Curl_auth_create_plain_message
 .text          0x001ef72c      0x134 /opt/netsurf/m68k-unknown-amigaos/env/lib/libcurl.a(libcurl_la-oauth2.o)
                0x001ef778                _Curl_auth_create_oauth_bearer_message
                0x001ef816                _Curl_auth_create_xoauth_bearer_message
 .text          0x001ef860      0x188 /opt/netsurf/m68k-unknown-amigaos/env/lib/libcurl.a(libcurl_la-cram.o)
                0x001ef8a4                _Curl_auth_create_cram_md5_message
 .text          0x001ef9e8       0x5c /opt/netsurf/m68k-unknown-amigaos/env/lib/libcurl.a(libcurl_la-md4.o)
                0x001ef9e8                _Curl_md4it
 .text          0x001efa44      0x490 /opt/netsurf/m68k-unknown-amigaos/cross/lib/gcc/m68k-unknown-amigaos/3.4.6/../../../../m68k-unknown-amigaos/lib/libamisslauto.a(autoinit_assl.o)
                0x001efe80                ___exit_amissl
                0x001efa5e                _FPrintf
                0x001efa92                _CleanupAmiSSL
                0x001efaa6                _OpenAmiSSLTags
                0x001efb90                ___init_amissl
                0x001efa7e                _InitAmiSSL
 .text          0x001efed4       0x14 /opt/netsurf/m68k-unknown-amigaos/cross/lib/gcc/m68k-unknown-amigaos/3.4.6/../../../../m68k-unknown-amigaos/lib/libamisslstubs.a()
                0x001efed4                _X509_INFO_free
 .text          0x001efee8       0x14 /opt/netsurf/m68k-unknown-amigaos/cross/lib/gcc/m68k-unknown-amigaos/3.4.6/../../../../m68k-unknown-amigaos/lib/libamisslstubs.a(X509_free.o)
                0x001efee8                _X509_free
 .text          0x001efefc    0xe498c /opt/netsurf/m68k-unknown-amigaos/env/lib/libiconv.a(iconv.o)
                0x002d4226                _libiconvctl
                0x002d3d70                _libiconv
                0x002d44a6                _libiconvlist
                0x002d3914                _libiconv_open
                0x002d46f4                _iconv_canonicalize
                0x002d3dd4                _libiconv_close
                0x002d3df0                _libiconv_open_into
 .text          0x002d4888       0xbc /opt/netsurf/m68k-unknown-amigaos/env/lib/libiconv.a(localcharset.o)
                0x002d48c2                _locale_charset
 .text          0x002d4944       0x28 /mnt/e/usr/local/amiga/m68k-amigaos/clib/extra/ns-lib/libamiga2.a(sprintf.o)
                0x002d4948                _sprintf
 .text          0x002d496c       0x18 /mnt/e/usr/local/amiga/m68k-amigaos/clib/extra/ns-lib/libamiga2.a(setattrs.o)
                0x002d496c                _SetAttrs
 .text          0x002d4984       0x24 /mnt/e/usr/local/amiga/m68k-amigaos/clib/extra/ns-lib/libamiga2.a(DoMethod.o)
                0x002d498a                _DoMethodA
                0x002d4984                _DoMethod
 .text          0x002d49a8       0x2c /mnt/e/usr/local/amiga/m68k-amigaos/clib/extra/ns-lib/libamiga2.a(DoSuperMethod.o)
                0x002d49a8                _DoSuperMethod
                0x002d49ae                _DoSuperMethodA
 .text          0x002d49d4       0x14 /mnt/e/usr/local/amiga/m68k-amigaos/clib/extra/ns-lib/libamiga2.a(HookEntry.o)
                0x002d49d4                _HookEntry
 .text          0x002d49e8       0x14 /mnt/e/usr/local/amiga/m68k-amigaos/clib/extra/ns-lib/libamiga2.a(NewList.o)
                0x002d49e8                _NewList
 .text          0x002d49fc       0x20 /mnt/e/usr/local/amiga/m68k-amigaos/clib/extra/ns-lib/libamiga2.a(fwritef.o)
                0x002d49fc                _FWritef
 .text          0x002d4a1c       0x20 /mnt/e/usr/local/amiga/m68k-amigaos/clib/extra/ns-lib/libamiga2.a(obtainbestpen.o)
                0x002d4a1c                _ObtainBestPen
 .text          0x002d4a3c       0x10 /mnt/e/usr/local/amiga/m68k-amigaos/clib/extra/ns-lib/libamiga2.a(ioerr.o)
                0x002d4a3c                _IoErr
 .text          0x002d4a4c       0x14 /mnt/e/usr/local/amiga/m68k-amigaos/clib/extra/ns-lib/libamiga2.a(createnewppoctags.o)
                0x002d4a4c                _CreateNewProcTags
 .text          0x002d4a60       0x18 /mnt/e/usr/local/amiga/m68k-amigaos/clib/extra/ns-lib/libamiga2.a(allocmem.o)
                0x002d4a60                _AllocMem
 .text          0x002d4a78       0x18 /mnt/e/usr/local/amiga/m68k-amigaos/clib/extra/ns-lib/libamiga2.a(freemem.o)
                0x002d4a78                _FreeMem
 .text          0x002d4a90       0x28 /mnt/e/usr/local/amiga/m68k-amigaos/clib/extra/ns-lib/libamiga2.a(maprawkey.o)
                0x002d4a90                _MapRawKey
 .text          0x002d4ab8       0x20 /mnt/e/usr/local/amiga/m68k-amigaos/clib/extra/ns-lib/libamiga2.a(write.o)
                0x002d4ab8                _Write
 .text          0x002d4ad8       0x14 /mnt/e/usr/local/amiga/m68k-amigaos/clib/extra/ns-lib/libamiga2.a(close.o)
                0x002d4ad8                _Close
 .text          0x002d4aec       0x14 /mnt/e/usr/local/amiga/m68k-amigaos/clib/extra/ns-lib/libamiga2.a(freevec.o)
                0x002d4aec                _FreeVec
 .text          0x002d4b00       0x14 /mnt/e/usr/local/amiga/m68k-amigaos/clib/extra/ns-lib/libamiga2.a(setioerr.o)
                0x002d4b00                _SetIoErr
 .text          0x002d4b14       0x1c /mnt/e/usr/local/amiga/m68k-amigaos/clib/extra/ns-lib/libamiga2.a(copymem.o)
                0x002d4b14                _CopyMem
 .text          0x002d4b30       0x1c /mnt/e/usr/local/amiga/m68k-amigaos/clib/extra/ns-lib/libamiga2.a(open.o)
                0x002d4b30                _Open
 .text          0x002d4b4c       0x14 /mnt/e/usr/local/amiga/m68k-amigaos/clib/extra/ns-lib/libamiga2.a(waitport.o)
                0x002d4b4c                _WaitPort
 .text          0x002d4b60       0x14 /mnt/e/usr/local/amiga/m68k-amigaos/clib/extra/ns-lib/libamiga2.a(remove.o)
                0x002d4b60                _Remove
 .text          0x002d4b74       0x24 /mnt/e/usr/local/amiga/m68k-amigaos/clib/extra/ns-lib/libamiga2.a(errorreport.o)
                0x002d4b74                _ErrorReport
 .text          0x002d4b98       0x18 /mnt/e/usr/local/amiga/m68k-amigaos/clib/extra/ns-lib/libamiga2.a(putmsg.o)
                0x002d4b98                _PutMsg
 .text          0x002d4bb0       0x14 /mnt/e/usr/local/amiga/m68k-amigaos/clib/extra/ns-lib/libamiga2.a(duplockfromfh.o)
                0x002d4bb0                _DupLockFromFH
 .text          0x002d4bc4       0x20 /mnt/e/usr/local/amiga/m68k-amigaos/clib/extra/ns-lib/libamiga2.a(seek.o)
                0x002d4bc4                _Seek
 .text          0x002d4be4       0x14 /mnt/e/usr/local/amiga/m68k-amigaos/clib/extra/ns-lib/libamiga2.a(parentoffh.o)
                0x002d4be4                _ParentOfFH
 .text          0x002d4bf8       0x1c /mnt/e/usr/local/amiga/m68k-amigaos/clib/extra/ns-lib/libamiga2.a(info.o)
                0x002d4bf8                _Info
 .text          0x002d4c14       0x14 /mnt/e/usr/local/amiga/m68k-amigaos/clib/extra/ns-lib/libamiga2.a(unlock.o)
                0x002d4c14                _UnLock
 .text          0x002d4c28       0x18 /mnt/e/usr/local/amiga/m68k-amigaos/clib/extra/ns-lib/libamiga2.a(allocvec.o)
                0x002d4c28                _AllocVec
 .text          0x002d4c40       0x14 /mnt/e/usr/local/amiga/m68k-amigaos/clib/extra/ns-lib/libamiga2.a(findtask.o)
                0x002d4c40                _FindTask
 .text          0x002d4c54       0x20 /opt/netsurf/m68k-unknown-amigaos/cross/lib/gcc/m68k-unknown-amigaos/3.4.6/../../../../m68k-unknown-amigaos/lib/libdebug.a(debug_kprintf1.o)
                0x002d4c54                _kprintf
 .text          0x002d4c74       0x30 /opt/netsurf/m68k-unknown-amigaos/cross/lib/gcc/m68k-unknown-amigaos/3.4.6/../../../../m68k-unknown-amigaos/lib/libdebug.a(debug_kputfmt.o)
                0x002d4c74                _KPutFmt
 .text          0x002d4ca4       0x28 /opt/netsurf/m68k-unknown-amigaos/cross/lib/gcc/m68k-unknown-amigaos/3.4.6/../../../../m68k-unknown-amigaos/lib/libdebug.a(debug_kdofmt.o)
                0x002d4ca4                _KDoFmt
 .text          0x002d4ccc       0x14 /opt/netsurf/m68k-unknown-amigaos/cross/lib/gcc/m68k-unknown-amigaos/3.4.6/../../../../m68k-unknown-amigaos/lib/libdebug.a(debug_kputc.o)
                0x002d4ccc                _kputc
 .text          0x002d4ce0       0xf4 lib/libhubbub-0.0.2.a(src_hubbub.o)
                0x002d4d9a                _hubbub_finalise
                0x002d4ce0                _hubbub_initialise
 .text          0x002d4dd4      0x428 lib/libhubbub-0.0.2.a(src_parser.o)
                0x002d4f76                _hubbub_parser_destroy
                0x002d5196                _hubbub_parser_completed
                0x002d4dd4                _hubbub_parser_create
                0x002d4fba                _hubbub_parser_setopt
                0x002d51d4                _hubbub_parser_read_charset
                0x002d50ce                _hubbub_parser_parse_chunk
 .text          0x002d51fc     0x89c8 lib/libhubbub-0.0.2.a(src_treebuilder_tokeniser_entities.o)
                0x002ddb58                _hubbub_entities_destroy
                0x002ddb6c                _hubbub_entities_search_step
                0x002ddade                _hubbub_entities_create
 .text          0x002ddbc4      0xcb0 lib/libhubbub-0.0.2.a(src_charset_detect.o)
                0x002de212                _hubbub_charset_extract
                0x002ddd5e                _hubbub_charset_parse_content
                0x002ddc5a                _hubbub_charset_fix_charset
 .text          0x002de874     0x5930 lib/libhubbub-0.0.2.a(src_treebuilder_tokeniser_tokeniser.o)
                0x002deaa8                _hubbub_tokeniser_destroy
                0x002de9a6                _hubbub_tokeniser_create
                0x002e29b2                _hubbub_tokeniser_run
                0x002deaf6                _hubbub_tokeniser_setopt
 .text          0x002e41a4     0x2144 lib/libhubbub-0.0.2.a(src_treebuilder_treebuilder.o)
                0x002e61fa                _formatting_list_append
                0x002e6196                _current_table
                0x002e5fb2                _element_stack_pop_until
                0x002e5066                _element_in_scope
                0x002e6262                _formatting_list_insert
                0x002e5922                _element_stack_pop
                0x002e5182                _remove_node_from_dom
                0x002e60b0                _element_stack_remove
                0x002e484c                _hubbub_treebuilder_create
                0x002e535a                _reset_insertion_mode
                0x002e547e                _element_type_from_name
                0x002e5b7c                _reconstruct_active_formatting_list
                0x002e4abc                _hubbub_treebuilder_setopt
                0x002e5254                _formatting_list_remove
                0x002e5852                _parse_generic_rcdata
                0x002e4b16                _hubbub_treebuilder_token_handler
                0x002e4dfc                _process_characters_expect_whitespace
                0x002e5100                _element_stack_push
                0x002e4f60                _process_comment_append
                0x002e590a                _is_formatting_element
                0x002e5212                _formatting_list_replace
                0x002e504e                _is_scoping_element
                0x002e61d2                _prev_node
                0x002e52ca                _clear_active_formatting_list_to_marker
                0x002e54d0                _insert_element
                0x002e4cfa                _append_text
                0x002e59e6                _close_implied_end_tags
                0x002e4cde                _current_node
                0x002e494a                _hubbub_treebuilder_destroy
                0x002e5f9e                _is_phrasing_element
                0x002e58f6                _is_special_element
 .text          0x002e62e8      0x364 lib/libhubbub-0.0.2.a(src_treebuilder_utils_dict.o)
                0x002e62e8                _hubbub_dict_create
                0x002e64ce                _hubbub_dict_insert
                0x002e65a8                _hubbub_dict_search_step
                0x002e6388                _hubbub_dict_destroy
 .text          0x002e664c      0xc74 lib/libhubbub-0.0.2.a(src_treebuilder_initial.o)
                0x002e6f34                _handle_initial
 .text          0x002e72c0      0x124 lib/libhubbub-0.0.2.a(src_treebuilder_generic_rcdata.o)
                0x002e72c0                _handle_generic_rcdata
 .text          0x002e73e4       0xb0 lib/libhubbub-0.0.2.a(src_treebuilder_after_after_frameset.o)
                0x002e73e4                _handle_after_after_frameset
 .text          0x002e7494       0xa0 lib/libhubbub-0.0.2.a(src_treebuilder_after_after_body.o)
                0x002e7494                _handle_after_after_body
 .text          0x002e7534       0xd8 lib/libhubbub-0.0.2.a(src_treebuilder_after_frameset.o)
                0x002e7534                _handle_after_frameset
 .text          0x002e760c      0x16c lib/libhubbub-0.0.2.a(src_treebuilder_in_frameset.o)
                0x002e760c                _handle_in_frameset
 .text          0x002e7778      0x140 lib/libhubbub-0.0.2.a(src_treebuilder_after_body.o)
                0x002e7778                _handle_after_body
 .text          0x002e78b8     0x188c lib/libhubbub-0.0.2.a(src_treebuilder_in_foreign_content.o)
                0x002e8728                _adjust_mathml_attributes
                0x002e8aa0                _handle_in_foreign_content
                0x002e8898                _adjust_foreign_attributes
                0x002e87f4                _adjust_svg_tagname
                0x002e8784                _adjust_svg_attributes
 .text          0x002e9144       0xcc lib/libhubbub-0.0.2.a(src_treebuilder_in_select_in_table.o)
                0x002e9144                _handle_in_select_in_table
 .text          0x002e9210      0x2e4 lib/libhubbub-0.0.2.a(src_treebuilder_in_select.o)
                0x002e9210                _handle_in_select
 .text          0x002e94f4      0x2ac lib/libhubbub-0.0.2.a(src_treebuilder_in_cell.o)
                0x002e94f4                _handle_in_cell
 .text          0x002e97a0      0x390 lib/libhubbub-0.0.2.a(src_treebuilder_in_row.o)
                0x002e97a0                _handle_in_row
 .text          0x002e9b30      0x500 lib/libhubbub-0.0.2.a(src_treebuilder_in_table_body.o)
                0x002e9b34                _handle_in_table_body
 .text          0x002ea030      0x118 lib/libhubbub-0.0.2.a(src_treebuilder_in_column_group.o)
                0x002ea030                _handle_in_column_group
 .text          0x002ea148      0x17c lib/libhubbub-0.0.2.a(src_treebuilder_in_caption.o)
                0x002ea148                _handle_in_caption
 .text          0x002ea2c4      0x594 lib/libhubbub-0.0.2.a(src_treebuilder_in_table.o)
                0x002ea2da                _handle_in_table
 .text          0x002ea858     0x2944 lib/libhubbub-0.0.2.a(src_treebuilder_in_body.o)
                0x002ec948                _handle_in_body
                0x002ea93c                _aa_insert_into_foster_parent
 .text          0x002ed19c      0x234 lib/libhubbub-0.0.2.a(src_treebuilder_after_head.o)
                0x002ed1a2                _handle_after_head
 .text          0x002ed3d0      0x120 lib/libhubbub-0.0.2.a(src_treebuilder_in_head_noscript.o)
                0x002ed3d0                _handle_in_head_noscript
 .text          0x002ed4f0      0x3d8 lib/libhubbub-0.0.2.a(src_treebuilder_in_head.o)
                0x002ed520                _handle_in_head
 .text          0x002ed8c8      0x1a8 lib/libhubbub-0.0.2.a(src_treebuilder_before_head.o)
                0x002ed8ce                _handle_before_head
 .text          0x002eda70      0x15c lib/libhubbub-0.0.2.a(src_treebuilder_before_html.o)
                0x002eda76                _handle_before_html
 .text          0x002edbcc       0x78 lib/libhubbub-0.0.2.a(src_treebuilder_utils_string.o)
                0x002edbcc                _hubbub_string_match
                0x002edc00                _hubbub_string_match_ci
 .text          0x002edc44      0x608 lib/libparserutils-0.0.1.a(src_charset_encodings_utf8.o)
                0x002ee01a                _parserutils_charset_utf8_next
                0x002ee088                _parserutils_charset_utf8_next_paranoid
                0x002ee14c                _numContinuations
                0x002eddc8                _parserutils_charset_utf8_from_ucs4
                0x002edfd4                _parserutils_charset_utf8_prev
                0x002edf9e                _parserutils_charset_utf8_char_byte_length
                0x002edc44                _parserutils_charset_utf8_to_ucs4
                0x002edebc                _parserutils_charset_utf8_length
 .text          0x002ee24c       0x48 lib/libparserutils-0.0.1.a(src_parserutils.o)
                0x002ee26e                _parserutils_finalise
                0x002ee24c                _parserutils_initialise
 .text          0x002ee294      0x838 lib/libparserutils-0.0.1.a(src_input_inputstream.o)
                0x002eea42                _parserutils_inputstream_change_charset
                0x002ee4b6                _parserutils_inputstream_append
                0x002ee4f4                _parserutils_inputstream_insert
                0x002ee29a                _parserutils_inputstream_create
                0x002ee45e                _parserutils_inputstream_destroy
                0x002ee55a                _parserutils_inputstream_peek_slow
                0x002eea06                _parserutils_inputstream_read_charset
 .text          0x002eeacc      0x744 lib/libparserutils-0.0.1.a(src_charset_aliases.o)
                0x002eec42                _parserutils_charset_aliases_create
                0x002eef9e                _parserutils_charset_mibenum_to_name
                0x002ef084                _parserutils_charset_mibenum_from_name
                0x002eefd4                _parserutils_charset_alias_canonicalise
                0x002ef0f2                _parserutils_charset_mibenum_is_unicode
                0x002eef14                _parserutils_charset_aliases_destroy
 .text          0x002ef210      0x334 lib/libparserutils-0.0.1.a(src_utils_buffer.o)
                0x002ef210                _parserutils_buffer_create
                0x002ef52c                _parserutils_buffer_randomise
                0x002ef2a4                _parserutils_buffer_destroy
                0x002ef4e6                _parserutils_buffer_grow
                0x002ef386                _parserutils_buffer_insert
                0x002ef48a                _parserutils_buffer_discard
                0x002ef2e6                _parserutils_buffer_append
 .text          0x002ef544       0x48 lib/libparserutils-0.0.1.a(src_charset_charset.o)
                0x002ef566                _parserutils_charset_finalise
                0x002ef544                _parserutils_charset_initialise
 .text          0x002ef58c      0x398 lib/libparserutils-0.0.1.a(src_input_filter.o)
                0x002ef712                _parserutils_filter_destroy
                0x002ef76a                _parserutils_filter_setopt
                0x002ef8d8                _parserutils_filter_reset
                0x002ef79c                _parserutils_filter_process_chunk
                0x002ef624                _parserutils_filter_create
 .text          0x002ef924      0x1dc lib/libparserutils-0.0.1.a(src_charset_codec.o)
                0x002ef924                _parserutils_charset_codec_create
                0x002efa9e                _parserutils_charset_codec_decode
                0x002efa24                _parserutils_charset_codec_setopt
                0x002efae6                _parserutils_charset_codec_reset
                0x002ef9e8                _parserutils_charset_codec_destroy
                0x002efa56                _parserutils_charset_codec_encode
 .text          0x002efb00      0xb5c lib/libparserutils-0.0.1.a(src_charset_codecs_codec_utf8.o)
                0x002f0652                _charset_utf8_codec_handler
 .text          0x002f065c      0x774 lib/libparserutils-0.0.1.a(src_charset_codecs_codec_utf16.o)
                0x002f0dc8                _charset_utf16_codec_handler
 .text          0x002f0dd0      0x5ac lib/libparserutils-0.0.1.a(src_charset_codecs_codec_8859.o)
                0x002f12c8                _charset_8859_codec_handler
 .text          0x002f137c      0x570 lib/libparserutils-0.0.1.a(src_charset_codecs_codec_ext8.o)
                0x002f186c                _charset_ext8_codec_handler
 .text          0x002f18ec      0x3d0 lib/libparserutils-0.0.1.a(src_charset_codecs_codec_ascii.o)
                0x002f1cb2                _charset_ascii_codec_handler
 .text          0x002f1cbc      0x310 lib/libparserutils-0.0.1.a(src_charset_encodings_utf16.o)
                0x002f1dde                _parserutils_charset_utf16_length
                0x002f1cbc                _parserutils_charset_utf16_to_ucs4
                0x002f1d6e                _parserutils_charset_utf16_from_ucs4
                0x002f1ece                _parserutils_charset_utf16_next
                0x002f1e38                _parserutils_charset_utf16_char_byte_length
                0x002f1f38                _parserutils_charset_utf16_next_paranoid
                0x002f1e72                _parserutils_charset_utf16_prev
 .text          0x002f1fcc     0x69f4 lib/libpng12.a(pngread.o)
                0x002f4090                _png_image_begin_read_from_file
                0x002f20d8                _png_read_info
                0x002f42d6                _png_image_begin_read_from_memory
                0x002f2f1c                _png_read_rows
                0x002f3f94                _png_image_begin_read_from_stdio
                0x002f3862                _png_read_png
                0x002f3812                _png_set_read_status_fn
                0x002f292e                _png_read_row
                0x002f1fcc                _png_create_read_struct
                0x002f37ac                _png_destroy_read_struct
                0x002f259e                _png_read_update_info
                0x002f2626                _png_start_read_image
                0x002f87b2                _png_image_finish_read
                0x002f315c                _png_read_end
                0x002f3046                _png_read_image
                0x002f1ff2                _png_create_read_struct_2
 .text          0x002f89c0     0x73d8 lib/libpng12.a(png.o)
                0x002fe1c2                _png_muldiv
                0x002fcc90                _png_icc_set_sRGB
                0x002fc4ee                _png_icc_check_tag_table
                0x002f9f28                _png_access_version_number
                0x002fd4e6                _png_check_fp_number
                0x002f9e08                _png_handle_as_unknown
                0x002fe890                _png_gamma_correct
                0x002f9cd2                _png_get_header_ver
                0x002f9860                _png_save_int_32
                0x002fdf78                _png_ascii_from_fixed
                0x002f9cb2                _png_get_copyright
                0x002f8c74                _png_user_version_check
                0x002f8ae2                _png_zalloc
                0x002f98b8                _png_convert_to_rfc1123_buffer
                0x002f9826                _png_get_io_ptr
                0x002fa30a                _png_colorspace_sync_info
                0x002fd890                _png_ascii_from_fp
                0x002fe31a                _png_muldiv_warn
                0x002ffcb0                _png_image_free
                0x002f9cc0                _png_get_libpng_ver
                0x002fb58c                _png_colorspace_set_endpoints
                0x002fb4de                _png_colorspace_set_chromaticities
                0x002f8a24                _png_sig_cmp
                0x002f9bae                _png_convert_to_rfc1123
                0x002fce04                _png_colorspace_set_rgb_coefficients
                0x002f8b3e                _png_zfree
                0x002f8b58                _png_reset_crc
                0x002fbeea                _png_icc_check_header
                0x002fe442                _png_gamma_significant
                0x002fa442                _png_colorspace_sync
                0x002fe674                _png_gamma_8bit_correct
                0x002fe358                _png_reciprocal
                0x002f8f5a                _png_destroy_info_struct
                0x002f9e92                _png_chunk_unknown_handling
                0x002f9d0e                _png_get_header_version
                0x002ff588                _png_sRGB_base
                0x002f8f16                _png_create_info_struct
                0x002fcd22                _png_colorspace_set_ICC
                0x002fd254                _png_check_IHDR
                0x002f8dec                _png_create_png_struct
                0x002fe0e2                _png_fixed
                0x002ffcfa                _png_image_error
                0x002f90d4                _png_free_data
                0x002fa00a                _png_zstream_error
                0x002f9062                _png_data_freer
                0x002fa224                _png_colorspace_set_gamma
                0x002fd76a                _png_check_fp_string
                0x002fefa2                _png_build_gamma_table
                0x002fbcea                _png_icc_check_length
                0x002f9f02                _png_reset_zstream
                0x002ff988                _png_sRGB_delta
                0x002f89e2                _png_set_sig_bytes
                0x002f8b7c                _png_calculate_crc
                0x002fed88                _png_destroy_gamma_table
                0x002ff388                _png_sRGB_table
                0x002f8fcc                _png_info_init_3
                0x002fe568                _png_reciprocal2
                0x002fe782                _png_gamma_16bit_correct
                0x002ff2f2                _png_set_option
                0x002f9842                _png_init_io
                0x002f9d1c                _png_build_grayscale_palette
                0x002fba2a                _png_colorspace_set_sRGB
 .text          0x002ffd98      0xea4 lib/libpng12.a(pngerror.o)
                0x00300a38                _png_get_error_ptr
                0x00300a62                _png_safe_error
                0x002ffff4                _png_warning
                0x0030053a                _png_chunk_error
                0x00300b2c                _png_safe_warning
                0x003000f6                _png_warning_parameter_signed
                0x002ffd98                _png_error
                0x00300388                _png_app_error
                0x00300086                _png_warning_parameter
                0x00300694                _png_fixed_error
                0x003000bc                _png_warning_parameter_unsigned
                0x00300960                _png_longjmp
                0x003005fe                _png_chunk_report
                0x00300164                _png_formatted_warning
                0x0030057c                _png_chunk_warning
                0x00300a02                _png_set_error_fn
                0x00300352                _png_app_warning
                0x00300b88                _png_safe_execute
                0x002ffe38                _png_format_number
                0x00300758                _png_set_longjmp_fn
                0x002ffdd4                _png_safecat
                0x003002ba                _png_benign_error
                0x00300846                _png_free_jmpbuf
                0x003005c8                _png_chunk_benign_error
 .text          0x00300c3c     0x266c lib/libpng12.a(pngpread.o)
                0x00300dd6                _png_process_some_data
                0x003031a6                _png_push_have_row
                0x003031f4                _png_progressive_combine_row
                0x00301ca0                _png_push_fill_buffer
                0x00300c8a                _png_process_data_pause
                0x00301e58                _png_push_save_buffer
                0x0030314a                _png_push_have_info
                0x00303222                _png_set_progressive_read_fn
                0x00303178                _png_push_have_end
                0x00300fe4                _png_push_read_chunk
                0x0030326e                _png_get_progressive_ptr
                0x00300c3c                _png_process_data
                0x00301aa8                _png_push_crc_finish
                0x00300e8c                _png_push_read_sig
                0x003020ea                _png_push_read_IDAT
                0x00301a88                _png_push_crc_skip
                0x00302080                _png_push_restore_buffer
                0x00302534                _png_process_IDAT_data
                0x00300d48                _png_process_data_skip
                0x00302eb6                _png_read_push_finish_row
                0x003027e0                _png_push_process_row
 .text          0x003032a8     0x1bb4 lib/libpng12.a(pngget.o)
                0x00303354                _png_get_bit_depth
                0x00304794                _png_get_pCAL
                0x00303312                _png_get_image_width
                0x003033ba                _png_get_interlace_type
                0x00303742                _png_get_y_offset_pixels
                0x003037de                _png_get_x_pixels_per_inch
                0x00303e88                _png_get_cHRM_XYZ
                0x00304ddc                _png_get_chunk_cache_max
                0x00304226                _png_get_cHRM_fixed
                0x00304df8                _png_get_chunk_malloc_max
                0x003048a2                _png_get_sCAL_fixed
                0x00304dc0                _png_get_user_height_max
                0x00304716                _png_get_oFFs
                0x00303398                _png_get_filter_type
                0x003037fc                _png_get_y_pixels_per_inch
                0x00304e38                _png_get_palette_max
                0x003034e8                _png_get_pixel_aspect_ratio
                0x00304434                _png_get_iCCP
                0x00304cf6                _png_get_unknown_chunks
                0x00304534                _png_get_sPLT
                0x00303bfa                _png_get_bKGD
                0x00304e14                _png_get_io_state
                0x003038ce                _png_get_y_offset_inches
                0x00304d30                _png_get_rgb_to_gray_status
                0x00304e26                _png_get_io_chunk_type
                0x00304d68                _png_get_compression_buffer_size
                0x00303444                _png_get_y_pixels_per_meter
                0x003032a8                _png_get_valid
                0x003036b8                _png_get_y_offset_microns
                0x00303880                _png_get_x_offset_inches
                0x00304d4c                _png_get_user_chunk_ptr
                0x00304958                _png_get_sCAL
                0x00304114                _png_get_cHRM_XYZ_fixed
                0x003032ce                _png_get_rowbytes
                0x003036fe                _png_get_x_offset_pixels
                0x00304a48                _png_get_pHYs
                0x0030391c                _png_get_pHYs_dpi
                0x0030385e                _png_get_y_offset_inches_fixed
                0x003037c0                _png_get_pixels_per_inch
                0x003032f0                _png_get_rows
                0x00303332                _png_get_image_height
                0x00304b74                _png_get_text
                0x00303376                _png_get_color_type
                0x00304ad6                _png_get_PLTE
                0x003049dc                _png_get_sCAL_s
                0x003033dc                _png_get_compression_type
                0x003035d2                _png_get_pixel_aspect_ratio_fixed
                0x003033fe                _png_get_x_pixels_per_meter
                0x0030436e                _png_get_gAMA
                0x00304b30                _png_get_sBIT
                0x00303bba                _png_get_channels
                0x00304c2c                _png_get_tRNS
                0x0030348a                _png_get_pixels_per_meter
                0x0030456e                _png_get_hIST
                0x0030383c                _png_get_x_offset_inches_fixed
                0x00303bdc                _png_get_signature
                0x00303672                _png_get_x_offset_microns
                0x003045b2                _png_get_IHDR
                0x00304da4                _png_get_user_width_max
                0x00304320                _png_get_gAMA_fixed
                0x00304be2                _png_get_tIME
                0x003043e6                _png_get_sRGB
                0x00303c3e                _png_get_cHRM
 .text          0x00304e5c     0xa158 lib/libpng12.a(pngrtran.o)
                0x00305168                _png_set_background_fixed
                0x003068c6                _png_set_tRNS_to_alpha
                0x003052d0                _png_set_scale_16
                0x00306858                _png_set_palette_to_rgb
                0x00306936                _png_set_gray_to_rgb
                0x00306732                _png_set_gamma_fixed
                0x00307112                _png_init_read_transformations
                0x00306820                _png_set_expand
                0x00306890                _png_set_expand_gray_1_2_4_to_8
                0x00305294                _png_set_background
                0x00306b8e                _png_set_rgb_to_gray
                0x003069ca                _png_set_rgb_to_gray_fixed
                0x00305828                _png_set_quantize
                0x00308888                _png_read_transform_info
                0x00305584                _png_set_alpha_mode_fixed
                0x003057fa                _png_set_alpha_mode
                0x00304e86                _png_set_crc_action
                0x0030e7b6                _png_do_read_transformations
                0x00305306                _png_set_strip_16
                0x00306be6                _png_set_read_user_transform_fn
                0x0030533c                _png_set_strip_alpha
                0x003068fe                _png_set_expand_16
                0x003067d8                _png_set_gamma
 .text          0x0030efb4     0x1230 lib/libpng12.a(pngtrans.o)
                0x0030f31e                _png_set_invert_alpha
                0x0030f104                _png_set_interlace_handling
                0x003101c8                _png_get_current_pass_number
                0x0030f09a                _png_set_shift
                0x0030f374                _png_do_invert
                0x0030efb4                _png_set_bgr
                0x0030efde                _png_set_swap
                0x0031011a                _png_set_user_transform_info
                0x003101ac                _png_get_current_row_number
                0x0030f826                _png_do_packswap
                0x0030f4a0                _png_do_swap
                0x0030f8da                _png_do_strip_channel
                0x0030f05e                _png_set_packswap
                0x0030f018                _png_set_packing
                0x00310190                _png_get_user_transform_ptr
                0x0030f1a0                _png_set_filler
                0x0030f2f2                _png_set_swap_alpha
                0x0030fbbc                _png_do_bgr
                0x0030fdcc                _png_do_check_palette_indexes
                0x0030f29e                _png_set_add_alpha
                0x0030f34a                _png_set_invert_mono
 .text          0x003101e4      0x170 lib/libpng12.a(pngrio.o)
                0x00310200                _png_read_data
                0x0031024e                _png_default_read_data
                0x003102e2                _png_set_read_fn
 .text          0x00310354     0x6cf8 lib/libpng12.a(pngrutil.o)
                0x0031080a                _png_crc_read
                0x003165ae                _png_read_finish_IDAT
                0x0031364e                _png_handle_oFFs
                0x003146b8                _png_handle_iTXt
                0x00316274                _png_read_filter_row
                0x003132f0                _png_handle_hIST
                0x00311c38                _png_handle_cHRM
                0x0031666a                _png_read_finish_row
                0x003140ac                _png_handle_tIME
                0x00310522                _png_get_int_32
                0x003105a4                _png_get_uint_16
                0x00310852                _png_crc_finish
                0x00314fb4                _png_combine_row
                0x0031578c                _png_do_read_interlace
                0x0031186e                _png_handle_IEND
                0x00310714                _png_read_chunk_header
                0x003168aa                _png_read_start_row
                0x00316308                _png_read_IDAT_data
                0x003127d6                _png_handle_sPLT
                0x00314ed8                _png_check_chunk_name
                0x00314ca4                _png_handle_unknown
                0x00310914                _png_crc_error
                0x00310376                _png_get_uint_31
                0x0031392e                _png_handle_pCAL
                0x0031205c                _png_handle_iCCP
                0x00312c44                _png_handle_tRNS
                0x003104b4                _png_get_uint_32
                0x003115e6                _png_handle_PLTE
                0x0031061a                _png_read_sig
                0x00313e08                _png_handle_sCAL
                0x00313472                _png_handle_pHYs
                0x00311312                _png_handle_IHDR
                0x00311ec2                _png_handle_sRGB
                0x00312fb2                _png_handle_bKGD
                0x0031442e                _png_handle_zTXt
                0x003119d2                _png_handle_sBIT
                0x00314234                _png_handle_tEXt
                0x003118e4                _png_handle_gAMA
 .text          0x0031704c      0x3e8 lib/libpng12.a(pngmem.o)
                0x0031732e                _png_malloc_warn
                0x003173e6                _png_set_mem_fn
                0x003172aa                _png_malloc
                0x003170ec                _png_malloc_base
                0x003172f4                _png_malloc_default
                0x0031704c                _png_destroy_png_struct
                0x0031736c                _png_free
                0x003170b4                _png_calloc
                0x0031718a                _png_malloc_array
                0x003171de                _png_realloc_array
                0x003173be                _png_free_default
                0x00317418                _png_get_mem_ptr
 .text          0x00317434     0x2e04 lib/libpng12.a(pngset.o)
                0x00317a8a                _png_set_IHDR
                0x00319b4c                _png_permit_mng_features
                0x003194d4                _png_set_sPLT
                0x00319896                _png_set_unknown_chunks
                0x00317c96                _png_set_oFFs
                0x0031a140                _png_set_chunk_cache_max
                0x0031a010                _png_set_compression_buffer_size
                0x00318ad4                _png_set_text
                0x00318b62                _png_set_text_2
                0x00318554                _png_set_pHYs
                0x00317762                _png_set_cHRM_XYZ
                0x003192b8                _png_set_tRNS
                0x0031753e                _png_set_cHRM_XYZ_fixed
                0x003187fc                _png_set_sRGB_gAMA_and_cHRM
                0x0031a174                _png_set_benign_errors
                0x00317646                _png_set_cHRM
                0x003184c4                _png_set_sCAL_fixed
                0x003188d6                _png_set_iCCP
                0x0031a0e6                _png_set_invalid
                0x00319ed6                _png_set_read_user_chunk_fn
                0x0031a116                _png_set_user_limits
                0x003187b6                _png_set_sRGB
                0x00319f00                _png_set_rows
                0x00317de2                _png_set_pCAL
                0x003181b8                _png_set_sCAL_s
                0x003183f2                _png_set_sCAL
                0x0031749e                _png_set_cHRM_fixed
                0x003185da                _png_set_PLTE
                0x00317890                _png_set_gAMA_fixed
                0x0031a1bc                _png_set_check_for_invalid_index
                0x00318738                _png_set_sBIT
                0x00319ac2                _png_set_unknown_chunk_location
                0x0031a15a                _png_set_chunk_malloc_max
                0x00317434                _png_set_bKGD
                0x00319c7e                _png_set_keep_unknown_chunks
                0x003178e4                _png_set_gAMA
                0x00319188                _png_set_tIME
                0x0031796e                _png_set_hIST
 .text          0x0031a238     0x433c lib/libpng12.a(pngwrite.o)
                0x0031caa0                _png_set_text_compression_window_bits
                0x0031c8b2                _png_set_compression_level
                0x0031ca82                _png_set_text_compression_strategy
                0x0031e2e6                _png_image_write_to_stdio
                0x0031c986                _png_set_compression_window_bits
                0x0031bb04                _png_write_flush
                0x0031ca10                _png_set_compression_method
                0x0031ca46                _png_set_text_compression_level
                0x0031c39a                _png_set_filter_heuristics
                0x0031b256                _png_create_write_struct
                0x0031c8d0                _png_set_compression_mem_level
                0x0031bddc                _png_set_filter
                0x0031e426                _png_image_write_to_file
                0x0031b3b0                _png_write_image
                0x0031c6a4                _png_set_filter_heuristics_fixed
                0x0031a6ba                _png_write_info
                0x0031add4                _png_write_end
                0x0031cbe4                _png_write_png
                0x0031a3c6                _png_write_info_before_PLTE
                0x0031c8ee                _png_set_compression_strategy
                0x0031cb32                _png_set_write_status_fn
                0x0031b19c                _png_convert_from_struct_tm
                0x0031bce0                _png_destroy_write_struct
                0x0031b22e                _png_convert_from_time_t
                0x0031cafc                _png_set_text_compression_method
                0x0031b27c                _png_create_write_struct_2
                0x0031ca64                _png_set_text_compression_mem_level
                0x0031cb50                _png_set_write_user_transform_fn
                0x0031badc                _png_set_flush
                0x0031b36c                _png_write_rows
                0x0031b6b6                _png_write_row
 .text          0x0031e574     0x52f4 lib/libpng12.a(pngwutil.o)
                0x00320eca                _png_write_zTXt
                0x0031e7ae                _png_write_chunk_data
                0x0031e5c4                _png_save_uint_16
                0x0031e8be                _png_write_chunk
                0x0032007a                _png_write_iCCP
                0x003212ee                _png_write_oFFs
                0x0031e7f8                _png_write_chunk_end
                0x00321e2e                _png_do_write_interlace
                0x0031fbc4                _png_compress_IDAT
                0x003202ba                _png_write_sPLT
                0x00320cea                _png_write_hIST
                0x0031e574                _png_save_uint_32
                0x0031ff96                _png_write_sRGB
                0x0031ff02                _png_write_IEND
                0x00320878                _png_write_tRNS
                0x0032139a                _png_write_pCAL
                0x00321714                _png_write_tIME
                0x00320698                _png_write_cHRM_fixed
                0x00320db8                _png_write_tEXt
                0x0032180c                _png_write_start_row
                0x00321b40                _png_write_finish_row
                0x00320ae2                _png_write_bKGD
                0x00321686                _png_write_pHYs
                0x0032050a                _png_write_sBIT
                0x0031ff38                _png_write_gAMA_fixed
                0x00321056                _png_write_iTXt
                0x003215aa                _png_write_sCAL_s
                0x0031f670                _png_write_IHDR
                0x0031fa6a                _png_write_PLTE
                0x00322294                _png_write_find_filter
                0x0031e736                _png_write_chunk_start
                0x0031efda                _png_free_buffer_list
                0x0031e5ec                _png_write_sig
 .text          0x00323868      0x1e0 lib/libpng12.a(pngwio.o)
                0x00323884                _png_write_data
                0x0032394c                _png_default_flush
                0x003239bc                _png_set_write_fn
                0x003238d2                _png_default_write_data
                0x00323922                _png_flush
 .text          0x00323a48      0xe40 lib/libpng12.a(pngwtran.o)
                0x00324660                _png_do_write_transformations
 .text          0x00324888      0x644 /opt/netsurf/m68k-unknown-amigaos/cross/lib/gcc/m68k-unknown-amigaos/3.4.6/../../../../m68k-unknown-amigaos/lib/libunix.a(stdlib_main.o)
                0x003249a2                __main
 .text          0x00324ecc      0x244 /opt/netsurf/m68k-unknown-amigaos/cross/lib/gcc/m68k-unknown-amigaos/3.4.6/../../../../m68k-unknown-amigaos/lib/libunix.a(stdlib_malloc.o)
                0x00325040                ___dtor_stdlib_memory_exit
                0x003250b8                ___ctor_stdlib_memory_init
                0x00325010                _malloc
                0x00324ecc                ___allocate_memory
 .text          0x00325110      0x150 /opt/netsurf/m68k-unknown-amigaos/cross/lib/gcc/m68k-unknown-amigaos/3.4.6/../../../../m68k-unknown-amigaos/lib/libunix.a(stat_stat.o)
                0x00325110                _stat
 .text          0x00325260       0x64 /opt/netsurf/m68k-unknown-amigaos/cross/lib/gcc/m68k-unknown-amigaos/3.4.6/../../../../m68k-unknown-amigaos/lib/libunix.a(stdio_fopen.o)
                0x00325260                _fopen
 .text          0x003252c4       0xb0 /opt/netsurf/m68k-unknown-amigaos/cross/lib/gcc/m68k-unknown-amigaos/3.4.6/../../../../m68k-unknown-amigaos/lib/libunix.a(stdlib_realloc.o)
                0x0032535e                _realloc
 .text          0x00325374      0x154 /opt/netsurf/m68k-unknown-amigaos/cross/lib/gcc/m68k-unknown-amigaos/3.4.6/../../../../m68k-unknown-amigaos/lib/libunix.a(stdio_init_exit.o)
                0x0032548c                ___ctor_stdio_init
                0x00325374                ___close_all_files
                0x00325400                ___dtor_stdio_exit
 .text          0x003254c8        0x4 /opt/netsurf/m68k-unknown-amigaos/cross/lib/gcc/m68k-unknown-amigaos/3.4.6/../../../../m68k-unknown-amigaos/lib/libunix.a(stdlib_main_stub.o)
                0x003254c8                ___main
 .text          0x003254cc      0x2a0 /opt/netsurf/m68k-unknown-amigaos/cross/lib/gcc/m68k-unknown-amigaos/3.4.6/../../../../m68k-unknown-amigaos/lib/libunix.a(dirent_opendir.o)
                0x003254cc                _opendir
 .text          0x0032576c      0x2c8 /opt/netsurf/m68k-unknown-amigaos/cross/lib/gcc/m68k-unknown-amigaos/3.4.6/../../../../m68k-unknown-amigaos/lib/libunix.a(dirent_readdir.o)
                0x00325774                _readdir
 .text          0x00325a34       0xc8 /opt/netsurf/m68k-unknown-amigaos/cross/lib/gcc/m68k-unknown-amigaos/3.4.6/../../../../m68k-unknown-amigaos/lib/libunix.a(dirent_closedir.o)
                0x00325a72                _closedir
                0x00325a44                ___dtor_dirent_exit
                0x00325a34                ___ctor_dirent_init
 .text          0x00325afc      0x108 /opt/netsurf/m68k-unknown-amigaos/cross/lib/gcc/m68k-unknown-amigaos/3.4.6/../../../../m68k-unknown-amigaos/lib/libunix.a(stat_mkdir.o)
                0x00325afc                _mkdir
 .text          0x00325c04       0x1c /opt/netsurf/m68k-unknown-amigaos/cross/lib/gcc/m68k-unknown-amigaos/3.4.6/../../../../m68k-unknown-amigaos/lib/libunix.a(stdio_remove.o)
                0x00325c04                _remove
 .text          0x00325c20       0x94 /opt/netsurf/m68k-unknown-amigaos/cross/lib/gcc/m68k-unknown-amigaos/3.4.6/../../../../m68k-unknown-amigaos/lib/libunix.a(stdio_fflush.o)
                0x00325c20                _fflush
 .text          0x00325cb4      0x4b8 /opt/netsurf/m68k-unknown-amigaos/cross/lib/gcc/m68k-unknown-amigaos/3.4.6/../../../../m68k-unknown-amigaos/lib/libunix.a(fcntl_open.o)
                0x00325cc0                _open
 .text          0x0032616c      0x1a8 /opt/netsurf/m68k-unknown-amigaos/cross/lib/gcc/m68k-unknown-amigaos/3.4.6/../../../../m68k-unknown-amigaos/lib/libunix.a(unistd_getcwd.o)
                0x003262fc                _getcwd
 .text          0x00326314      0x2a4 /opt/netsurf/m68k-unknown-amigaos/cross/lib/gcc/m68k-unknown-amigaos/3.4.6/../../../../m68k-unknown-amigaos/lib/libunix.a(fcntl_fcntl.o)
                0x00326314                _fcntl
 .text          0x003265b8      0x1d4 /opt/netsurf/m68k-unknown-amigaos/cross/lib/gcc/m68k-unknown-amigaos/3.4.6/../../../../m68k-unknown-amigaos/lib/libunix.a(unistd_unlink.o)
                0x003265ba                _unlink
 .text          0x0032678c       0x98 /opt/netsurf/m68k-unknown-amigaos/cross/lib/gcc/m68k-unknown-amigaos/3.4.6/../../../../m68k-unknown-amigaos/lib/libunix.a(stat_fstat.o)
                0x0032678c                _fstat
 .text          0x00326824      0x130 /opt/netsurf/m68k-unknown-amigaos/cross/lib/gcc/m68k-unknown-amigaos/3.4.6/../../../../m68k-unknown-amigaos/lib/libunix.a(stdio_rename.o)
                0x00326824                _rename
 .text          0x00326954      0x444 /opt/netsurf/m68k-unknown-amigaos/cross/lib/gcc/m68k-unknown-amigaos/3.4.6/../../../../m68k-unknown-amigaos/lib/libunix.a(stdlib_arg.o)
                0x0032697c                ___ctor_arg_init
 .text          0x00326d98      0x4b0 /opt/netsurf/m68k-unknown-amigaos/cross/lib/gcc/m68k-unknown-amigaos/3.4.6/../../../../m68k-unknown-amigaos/lib/libunix.a(stdio_file_init.o)
                0x00326d98                ___dtor_workbench_exit
                0x00327072                ___ctor_stdio_file_init
 .text          0x00327248      0x74c /opt/netsurf/m68k-unknown-amigaos/cross/lib/gcc/m68k-unknown-amigaos/3.4.6/../../../../m68k-unknown-amigaos/lib/libunix.a(unistd_translateu2a.o)
                0x00327274                ___translate_unix_to_amiga_path_name
 .text          0x00327994      0x16c /opt/netsurf/m68k-unknown-amigaos/cross/lib/gcc/m68k-unknown-amigaos/3.4.6/../../../../m68k-unknown-amigaos/lib/libunix.a(stdio_openiob.o)
                0x00327994                ___open_iob
 .text          0x00327b00      0x618 /opt/netsurf/m68k-unknown-amigaos/cross/lib/gcc/m68k-unknown-amigaos/3.4.6/../../../../m68k-unknown-amigaos/lib/libunix.a(stdio_fdhookentry.o)
                0x00327b00                ___fd_hook_entry
 .text          0x00328118      0x310 /opt/netsurf/m68k-unknown-amigaos/cross/lib/gcc/m68k-unknown-amigaos/3.4.6/../../../../m68k-unknown-amigaos/lib/libunix.a(unistd_translatea2u.o)
                0x00328122                ___translate_amiga_to_unix_path_name
 .text          0x00328428      0xd28 /opt/netsurf/m68k-unknown-amigaos/cross/lib/gcc/m68k-unknown-amigaos/3.4.6/../../../../m68k-unknown-amigaos/lib/libunix.a(stdio_record_locking.o)
                0x0032882c                ___handle_record_locking
 .text          0x00329150      0x510 /opt/netsurf/m68k-unknown-amigaos/cross/lib/gcc/m68k-unknown-amigaos/3.4.6/../../../../m68k-unknown-amigaos/lib/libunix.a(unistd_wildcard_expand.o)
                0x003291f4                ___wildcard_expand_init
                0x00329150                ___wildcard_quote_parameter
                0x003291d0                ___dtor___wildcard_expand_exit
 .text          0x00329660       0x44 /opt/netsurf/m68k-unknown-amigaos/cross/lib/gcc/m68k-unknown-amigaos/3.4.6/../../../../m68k-unknown-amigaos/lib/libunix.a(unistd_chdir_exit.o)
                0x00329660                ___dtor___chdir_exit
 .text          0x003296a4       0xa8 /opt/netsurf/m68k-unknown-amigaos/cross/lib/gcc/m68k-unknown-amigaos/3.4.6/../../../../m68k-unknown-amigaos/lib/libunix.a(unistd_translaterel.o)
                0x003296a6                ___translate_relative_path_name
 .text          0x0032974c       0xd0 /opt/netsurf/m68k-unknown-amigaos/cross/lib/gcc/m68k-unknown-amigaos/3.4.6/../../../../m68k-unknown-amigaos/lib/libunix.a(unistd_strip_double_slash.o)
                0x0032974c                ___strip_double_slash
 .text          0x0032981c       0x18 /opt/netsurf/m68k-unknown-amigaos/cross/lib/gcc/m68k-unknown-amigaos/3.4.6/../../../../m68k-unknown-amigaos/lib/libunix.a(stdio_locksemaphorename.o)
 .text          0x00329834       0x64 /opt/netsurf/m68k-unknown-amigaos/cross/lib/gcc/m68k-unknown-amigaos/3.4.6/../../../../m68k-unknown-amigaos/lib/libm.a(stdio_vsprintf.o)
                0x00329834                _vsprintf
 .text          0x00329898       0x90 /opt/netsurf/m68k-unknown-amigaos/cross/lib/gcc/m68k-unknown-amigaos/3.4.6/../../../../m68k-unknown-amigaos/lib/libm.a(stdio_vsnprintf.o)
                0x00329898                _vsnprintf
 .text          0x00329928       0x30 /opt/netsurf/m68k-unknown-amigaos/cross/lib/gcc/m68k-unknown-amigaos/3.4.6/../../../../m68k-unknown-amigaos/lib/libm.a(stdio_snprintf.o)
                0x00329928                _snprintf
 .text          0x00329958       0x2c /opt/netsurf/m68k-unknown-amigaos/cross/lib/gcc/m68k-unknown-amigaos/3.4.6/../../../../m68k-unknown-amigaos/lib/libm.a(stdio_fprintf.o)
                0x00329958                _fprintf
 .text          0x00329984       0x10 /opt/netsurf/m68k-unknown-amigaos/cross/lib/gcc/m68k-unknown-amigaos/3.4.6/../../../../m68k-unknown-amigaos/lib/libm.a(stdlib_atof.o)
                0x00329984                _atof
 .text          0x00329994       0x24 /opt/netsurf/m68k-unknown-amigaos/cross/lib/gcc/m68k-unknown-amigaos/3.4.6/../../../../m68k-unknown-amigaos/lib/libm.a(math_cos.o)
                0x00329994                ___cos
                0x003299aa                _cos
 .text          0x003299b8       0x24 /opt/netsurf/m68k-unknown-amigaos/cross/lib/gcc/m68k-unknown-amigaos/3.4.6/../../../../m68k-unknown-amigaos/lib/libm.a(math_sin.o)
                0x003299b8                ___sin
                0x003299ce                _sin
 .text          0x003299dc       0x34 /opt/netsurf/m68k-unknown-amigaos/cross/lib/gcc/m68k-unknown-amigaos/3.4.6/../../../../m68k-unknown-amigaos/lib/libm.a(stdio_printf.o)
                0x003299dc                _printf
 .text          0x00329a10       0xdc /opt/netsurf/m68k-unknown-amigaos/cross/lib/gcc/m68k-unknown-amigaos/3.4.6/../../../../m68k-unknown-amigaos/lib/libm.a(math_ceilf.o)
                0x00329a14                _ceilf
 .text          0x00329aec       0x24 /opt/netsurf/m68k-unknown-amigaos/cross/lib/gcc/m68k-unknown-amigaos/3.4.6/../../../../m68k-unknown-amigaos/lib/libm.a(math_ceil.o)
                0x00329b02                _ceil
                0x00329aec                ___ceil
 .text          0x00329b10       0x20 /opt/netsurf/m68k-unknown-amigaos/cross/lib/gcc/m68k-unknown-amigaos/3.4.6/../../../../m68k-unknown-amigaos/lib/libm.a(stdio_sscanf.o)
                0x00329b10                _sscanf
 .text          0x00329b30       0x14 /opt/netsurf/m68k-unknown-amigaos/cross/lib/gcc/m68k-unknown-amigaos/3.4.6/../../../../m68k-unknown-amigaos/lib/libm.a(math_floatsidf.o)
                0x00329b30                ___floatsidf
 .text          0x00329b44       0x1c /opt/netsurf/m68k-unknown-amigaos/cross/lib/gcc/m68k-unknown-amigaos/3.4.6/../../../../m68k-unknown-amigaos/lib/libm.a(math_adddf3.o)
                0x00329b44                ___adddf3
 .text          0x00329b60       0x1c /opt/netsurf/m68k-unknown-amigaos/cross/lib/gcc/m68k-unknown-amigaos/3.4.6/../../../../m68k-unknown-amigaos/lib/libm.a(math_muldf3.o)
                0x00329b60                ___muldf3
 .text          0x00329b7c       0x18 /opt/netsurf/m68k-unknown-amigaos/cross/lib/gcc/m68k-unknown-amigaos/3.4.6/../../../../m68k-unknown-amigaos/lib/libm.a(math_truncdfsf2.o)
                0x00329b7c                ___truncdfsf2
 .text          0x00329b94       0x14 /opt/netsurf/m68k-unknown-amigaos/cross/lib/gcc/m68k-unknown-amigaos/3.4.6/../../../../m68k-unknown-amigaos/lib/libm.a(math_floatsisf.o)
                0x00329b94                ___floatsisf
 .text          0x00329ba8       0x18 /opt/netsurf/m68k-unknown-amigaos/cross/lib/gcc/m68k-unknown-amigaos/3.4.6/../../../../m68k-unknown-amigaos/lib/libm.a(math_mulsf3.o)
                0x00329ba8                ___mulsf3
 .text          0x00329bc0       0x18 /opt/netsurf/m68k-unknown-amigaos/cross/lib/gcc/m68k-unknown-amigaos/3.4.6/../../../../m68k-unknown-amigaos/lib/libm.a(math_addsf3.o)
                0x00329bc0                ___addsf3
 .text          0x00329bd8       0x18 /opt/netsurf/m68k-unknown-amigaos/cross/lib/gcc/m68k-unknown-amigaos/3.4.6/../../../../m68k-unknown-amigaos/lib/libm.a(math_subsf3.o)
                0x00329bd8                ___subsf3
 .text          0x00329bf0       0x14 /opt/netsurf/m68k-unknown-amigaos/cross/lib/gcc/m68k-unknown-amigaos/3.4.6/../../../../m68k-unknown-amigaos/lib/libm.a(math_fixsfsi.o)
                0x00329bf0                ___fixsfsi
 .text          0x00329c04     0x15ac /opt/netsurf/m68k-unknown-amigaos/cross/lib/gcc/m68k-unknown-amigaos/3.4.6/../../../../m68k-unknown-amigaos/lib/libm.a(stdio_vfprintf.o)
                0x00329c3e                _vfprintf
 .text          0x0032b1b0       0x1c /opt/netsurf/m68k-unknown-amigaos/cross/lib/gcc/m68k-unknown-amigaos/3.4.6/../../../../m68k-unknown-amigaos/lib/libm.a(math_eqdf2.o)
                0x0032b1b0                ___eqdf2
 .text          0x0032b1cc        0xc /opt/netsurf/m68k-unknown-amigaos/cross/lib/gcc/m68k-unknown-amigaos/3.4.6/../../../../m68k-unknown-amigaos/lib/libm.a(math_nan.o)
                0x0032b1cc                _nan
 .text          0x0032b1d8       0xc4 /opt/netsurf/m68k-unknown-amigaos/cross/lib/gcc/m68k-unknown-amigaos/3.4.6/../../../../m68k-unknown-amigaos/lib/libm.a(math_fpclassify.o)
                0x0032b22e                ___fpclassify_double
                0x0032b1d8                ___fpclassify_float
 .text          0x0032b29c       0x1c /opt/netsurf/m68k-unknown-amigaos/cross/lib/gcc/m68k-unknown-amigaos/3.4.6/../../../../m68k-unknown-amigaos/lib/libm.a(math_gtdf2.o)
                0x0032b29c                ___gtdf2
 .text          0x0032b2b8        0x8 /opt/netsurf/m68k-unknown-amigaos/cross/lib/gcc/m68k-unknown-amigaos/3.4.6/../../../../m68k-unknown-amigaos/lib/libm.a(math_signbit.o)
                0x0032b2b8                ___signbit_float
                0x0032b2bc                ___signbit_double
 .text          0x0032b2c0       0x18 /opt/netsurf/m68k-unknown-amigaos/cross/lib/gcc/m68k-unknown-amigaos/3.4.6/../../../../m68k-unknown-amigaos/lib/libm.a(math_fixdfsi.o)
                0x0032b2c0                ___fixdfsi
 .text          0x0032b2d8       0x1c /opt/netsurf/m68k-unknown-amigaos/cross/lib/gcc/m68k-unknown-amigaos/3.4.6/../../../../m68k-unknown-amigaos/lib/libm.a(math_nedf2.o)
                0x0032b2d8                ___nedf2
 .text          0x0032b2f4       0x1c /opt/netsurf/m68k-unknown-amigaos/cross/lib/gcc/m68k-unknown-amigaos/3.4.6/../../../../m68k-unknown-amigaos/lib/libm.a(math_ltdf2.o)
                0x0032b2f4                ___ltdf2
 .text          0x0032b310       0x74 /opt/netsurf/m68k-unknown-amigaos/cross/lib/gcc/m68k-unknown-amigaos/3.4.6/../../../../m68k-unknown-amigaos/lib/libm.a(math_log10.o)
                0x0032b326                _log10
                0x0032b310                ___log10
 .text          0x0032b384       0xe8 /opt/netsurf/m68k-unknown-amigaos/cross/lib/gcc/m68k-unknown-amigaos/3.4.6/../../../../m68k-unknown-amigaos/lib/libm.a(math_pow.o)
                0x0032b384                ___pow
                0x0032b3a4                _pow
 .text          0x0032b46c       0x1c /opt/netsurf/m68k-unknown-amigaos/cross/lib/gcc/m68k-unknown-amigaos/3.4.6/../../../../m68k-unknown-amigaos/lib/libm.a(math_divdf3.o)
                0x0032b46c                ___divdf3
 .text          0x0032b488       0xcc /opt/netsurf/m68k-unknown-amigaos/cross/lib/gcc/m68k-unknown-amigaos/3.4.6/../../../../m68k-unknown-amigaos/lib/libm.a(math_fmod.o)
                0x0032b488                _fmod
 .text          0x0032b554       0x1c /opt/netsurf/m68k-unknown-amigaos/cross/lib/gcc/m68k-unknown-amigaos/3.4.6/../../../../m68k-unknown-amigaos/lib/libm.a(math_subdf3.o)
                0x0032b554                ___subdf3
 .text          0x0032b570       0x1c /opt/netsurf/m68k-unknown-amigaos/cross/lib/gcc/m68k-unknown-amigaos/3.4.6/../../../../m68k-unknown-amigaos/lib/libm.a(math_ledf2.o)
                0x0032b570                ___ledf2
 .text          0x0032b58c       0x1c /opt/netsurf/m68k-unknown-amigaos/cross/lib/gcc/m68k-unknown-amigaos/3.4.6/../../../../m68k-unknown-amigaos/lib/libm.a(math_gedf2.o)
                0x0032b58c                ___gedf2
 .text          0x0032b5a8       0x14 /opt/netsurf/m68k-unknown-amigaos/cross/lib/gcc/m68k-unknown-amigaos/3.4.6/../../../../m68k-unknown-amigaos/lib/libm.a(math_extendsfdf2.o)
                0x0032b5a8                ___extendsfdf2
 .text          0x0032b5bc       0x24 /opt/netsurf/m68k-unknown-amigaos/cross/lib/gcc/m68k-unknown-amigaos/3.4.6/../../../../m68k-unknown-amigaos/lib/libm.a(math_floor.o)
                0x0032b5d2                _floor
                0x0032b5bc                ___floor
 .text          0x0032b5e0       0x7c /opt/netsurf/m68k-unknown-amigaos/cross/lib/gcc/m68k-unknown-amigaos/3.4.6/../../../../m68k-unknown-amigaos/lib/libm.a(math_fixunsdfsi.o)
                0x0032b5e0                ___fixunsdfsi
 .text          0x0032b65c      0x134 /opt/netsurf/m68k-unknown-amigaos/cross/lib/gcc/m68k-unknown-amigaos/3.4.6/../../../../m68k-unknown-amigaos/lib/libm.a(math_frexp.o)
                0x0032b65c                _frexp
 .text          0x0032b790      0x13c /opt/netsurf/m68k-unknown-amigaos/cross/lib/gcc/m68k-unknown-amigaos/3.4.6/../../../../m68k-unknown-amigaos/lib/libm.a(math_modf.o)
                0x0032b798                _modf
 .text          0x0032b8cc       0x78 /opt/netsurf/m68k-unknown-amigaos/cross/lib/gcc/m68k-unknown-amigaos/3.4.6/../../../../m68k-unknown-amigaos/lib/libm.a(stdio_flush_all_files.o)
                0x0032b8cc                ___flush_all_files
 .text          0x0032b944      0x4e4 /opt/netsurf/m68k-unknown-amigaos/cross/lib/gcc/m68k-unknown-amigaos/3.4.6/../../../../m68k-unknown-amigaos/lib/libm.a(stdlib_strtod.o)
                0x0032b958                _strtod
 .text          0x0032be28      0x1bc /opt/netsurf/m68k-unknown-amigaos/cross/lib/gcc/m68k-unknown-amigaos/3.4.6/../../../../m68k-unknown-amigaos/lib/libm.a(math_init_exit.o)
                0x0032be28                ___dtor_math_exit
                0x0032bee8                ___ctor_math_init
 .text          0x0032bfe4       0x24 /opt/netsurf/m68k-unknown-amigaos/cross/lib/gcc/m68k-unknown-amigaos/3.4.6/../../../../m68k-unknown-amigaos/lib/libm.a(math_gtsf2.o)
                0x0032bfe4                ___gtsf2
 .text          0x0032c008       0x78 /opt/netsurf/m68k-unknown-amigaos/cross/lib/gcc/m68k-unknown-amigaos/3.4.6/../../../../m68k-unknown-amigaos/lib/libm.a(stdio_vsscanf.o)
                0x0032c008                _vsscanf
 .text          0x0032c080       0x44 /opt/netsurf/m68k-unknown-amigaos/cross/lib/gcc/m68k-unknown-amigaos/3.4.6/../../../../m68k-unknown-amigaos/lib/libm.a(stdio_flush.o)
                0x0032c080                ___flush
 .text          0x0032c0c4        0xc /opt/netsurf/m68k-unknown-amigaos/cross/lib/gcc/m68k-unknown-amigaos/3.4.6/../../../../m68k-unknown-amigaos/lib/libm.a(math_inf.o)
                0x0032c0c4                ___inf
 .text          0x0032c0d0       0x10 /opt/netsurf/m68k-unknown-amigaos/cross/lib/gcc/m68k-unknown-amigaos/3.4.6/../../../../m68k-unknown-amigaos/lib/libm.a(math_huge_val.o)
                0x0032c0d0                ___get_huge_val
 .text          0x0032c0e0       0x24 /opt/netsurf/m68k-unknown-amigaos/cross/lib/gcc/m68k-unknown-amigaos/3.4.6/../../../../m68k-unknown-amigaos/lib/libm.a(math_fabs.o)
                0x0032c0f6                _fabs
                0x0032c0e0                ___fabs
 .text          0x0032c104     0x143c /opt/netsurf/m68k-unknown-amigaos/cross/lib/gcc/m68k-unknown-amigaos/3.4.6/../../../../m68k-unknown-amigaos/lib/libm.a(stdio_vfscanf.o)
                0x0032c112                _vfscanf
 .text          0x0032d540       0x4c /opt/netsurf/m68k-unknown-amigaos/cross/lib/gcc/m68k-unknown-amigaos/3.4.6/../../../../m68k-unknown-amigaos/lib/libc.a(strings_strcasecmp.o)
                0x0032d540                _strcasecmp
 .text          0x0032d58c       0x6c /opt/netsurf/m68k-unknown-amigaos/cross/lib/gcc/m68k-unknown-amigaos/3.4.6/../../../../m68k-unknown-amigaos/lib/libc.a(stdlib_bsearch.o)
                0x0032d58c                _bsearch
 .text          0x0032d5f8       0x34 /opt/netsurf/m68k-unknown-amigaos/cross/lib/gcc/m68k-unknown-amigaos/3.4.6/../../../../m68k-unknown-amigaos/lib/libc.a(string_strcmp.o)
                0x0032d5f8                _strcmp
 .text          0x0032d62c      0x258 /opt/netsurf/m68k-unknown-amigaos/cross/lib/gcc/m68k-unknown-amigaos/3.4.6/../../../../m68k-unknown-amigaos/lib/libc.a(stdlib_assertion_failure.o)
                0x0032d6d0                ___assertion_failure
 .text          0x0032d884       0x18 /opt/netsurf/m68k-unknown-amigaos/cross/lib/gcc/m68k-unknown-amigaos/3.4.6/../../../../m68k-unknown-amigaos/lib/libc.a(string_bcopy.o)
                0x0032d884                _bcopy
 .text          0x0032d89c       0x3c /opt/netsurf/m68k-unknown-amigaos/cross/lib/gcc/m68k-unknown-amigaos/3.4.6/../../../../m68k-unknown-amigaos/lib/libc.a(string_strdup.o)
                0x0032d89c                _strdup
 .text          0x0032d8d8      0x1a8 /opt/netsurf/m68k-unknown-amigaos/cross/lib/gcc/m68k-unknown-amigaos/3.4.6/../../../../m68k-unknown-amigaos/lib/libc.a(stdlib_free.o)
                0x0032d9e0                _free
                0x0032d956                ___free_memory
                0x0032d8e0                ___free_memory_node
                0x0032d8d8                ___find_memory_node
 .text          0x0032da80       0x20 /opt/netsurf/m68k-unknown-amigaos/cross/lib/gcc/m68k-unknown-amigaos/3.4.6/../../../../m68k-unknown-amigaos/lib/libc.a(string_strchr.o)
                0x0032da80                _strchr
 .text          0x0032daa0       0x18 /opt/netsurf/m68k-unknown-amigaos/cross/lib/gcc/m68k-unknown-amigaos/3.4.6/../../../../m68k-unknown-amigaos/lib/libc.a(string_strlen.o)
                0x0032daa0                _strlen
 .text          0x0032dab8       0x54 /opt/netsurf/m68k-unknown-amigaos/cross/lib/gcc/m68k-unknown-amigaos/3.4.6/../../../../m68k-unknown-amigaos/lib/libc.a(string_strncmp.o)
                0x0032dab8                _strncmp
 .text          0x0032db0c       0x64 /opt/netsurf/m68k-unknown-amigaos/cross/lib/gcc/m68k-unknown-amigaos/3.4.6/../../../../m68k-unknown-amigaos/lib/libc.a(strings_strncasecmp.o)
                0x0032db0c                _strncasecmp
 .text          0x0032db70       0x38 /opt/netsurf/m68k-unknown-amigaos/cross/lib/gcc/m68k-unknown-amigaos/3.4.6/../../../../m68k-unknown-amigaos/lib/libc.a(time_time.o)
                0x0032db70                _time
 .text          0x0032dba8       0x18 /opt/netsurf/m68k-unknown-amigaos/cross/lib/gcc/m68k-unknown-amigaos/3.4.6/../../../../m68k-unknown-amigaos/lib/libc.a(stdlib_atoi.o)
                0x0032dba8                _atoi
 .text          0x0032dbc0       0x48 /opt/netsurf/m68k-unknown-amigaos/cross/lib/gcc/m68k-unknown-amigaos/3.4.6/../../../../m68k-unknown-amigaos/lib/libc.a(string_strncpy.o)
                0x0032dbc0                _strncpy
 .text          0x0032dc08       0x18 /opt/netsurf/m68k-unknown-amigaos/cross/lib/gcc/m68k-unknown-amigaos/3.4.6/../../../../m68k-unknown-amigaos/lib/libc.a(string_bzero.o)
                0x0032dc08                _bzero
 .text          0x0032dc20       0x18 /opt/netsurf/m68k-unknown-amigaos/cross/lib/gcc/m68k-unknown-amigaos/3.4.6/../../../../m68k-unknown-amigaos/lib/libc.a(stdlib_atol.o)
                0x0032dc20                _atol
 .text          0x0032dc38       0x20 /opt/netsurf/m68k-unknown-amigaos/cross/lib/gcc/m68k-unknown-amigaos/3.4.6/../../../../m68k-unknown-amigaos/lib/libc.a(string_strrchr.o)
                0x0032dc38                _strrchr
 .text          0x0032dc58       0x3c /opt/netsurf/m68k-unknown-amigaos/cross/lib/gcc/m68k-unknown-amigaos/3.4.6/../../../../m68k-unknown-amigaos/lib/libc.a(stdlib_calloc.o)
                0x0032dc58                _calloc
 .text          0x0032dc94       0xb4 /opt/netsurf/m68k-unknown-amigaos/cross/lib/gcc/m68k-unknown-amigaos/3.4.6/../../../../m68k-unknown-amigaos/lib/libc.a(stdio_fgets.o)
                0x0032dc94                _fgets
 .text          0x0032dd48       0xf4 /opt/netsurf/m68k-unknown-amigaos/cross/lib/gcc/m68k-unknown-amigaos/3.4.6/../../../../m68k-unknown-amigaos/lib/libc.a(stdio_fclose.o)
                0x0032dd48                _fclose
 .text          0x0032de3c      0x1ac /opt/netsurf/m68k-unknown-amigaos/cross/lib/gcc/m68k-unknown-amigaos/3.4.6/../../../../m68k-unknown-amigaos/lib/libc.a(stdio_fputc.o)
                0x0032df0c                _fputc
                0x0032de94                ___fputc
                0x0032de3c                ___fputc_check
 .text          0x0032dfe8       0x38 /opt/netsurf/m68k-unknown-amigaos/cross/lib/gcc/m68k-unknown-amigaos/3.4.6/../../../../m68k-unknown-amigaos/lib/libc.a(string_strstr.o)
                0x0032dfe8                _strstr
 .text          0x0032e020       0x18 /opt/netsurf/m68k-unknown-amigaos/cross/lib/gcc/m68k-unknown-amigaos/3.4.6/../../../../m68k-unknown-amigaos/lib/libc.a(string_strcpy.o)
                0x0032e020                _strcpy
 .text          0x0032e038      0x308 /opt/netsurf/m68k-unknown-amigaos/cross/lib/gcc/m68k-unknown-amigaos/3.4.6/../../../../m68k-unknown-amigaos/lib/libc.a(stdlib_qsort.o)
                0x0032e038                _qsort
 .text          0x0032e340       0x60 /opt/netsurf/m68k-unknown-amigaos/cross/lib/gcc/m68k-unknown-amigaos/3.4.6/../../../../m68k-unknown-amigaos/lib/libc.a(ctype_isalpha.o)
                0x0032e340                _isalpha
 .text          0x0032e3a0       0x54 /opt/netsurf/m68k-unknown-amigaos/cross/lib/gcc/m68k-unknown-amigaos/3.4.6/../../../../m68k-unknown-amigaos/lib/libc.a(ctype_tolower.o)
                0x0032e3a0                _tolower
 .text          0x0032e3f4       0xd0 /opt/netsurf/m68k-unknown-amigaos/cross/lib/gcc/m68k-unknown-amigaos/3.4.6/../../../../m68k-unknown-amigaos/lib/libc.a(stdio_fputs.o)
                0x0032e3f4                _fputs
 .text          0x0032e4c4      0x1e4 /opt/netsurf/m68k-unknown-amigaos/cross/lib/gcc/m68k-unknown-amigaos/3.4.6/../../../../m68k-unknown-amigaos/lib/libc.a(string_memmove.o)
                0x0032e4c4                _memmove
 .text          0x0032e6a8       0x5c /opt/netsurf/m68k-unknown-amigaos/cross/lib/gcc/m68k-unknown-amigaos/3.4.6/../../../../m68k-unknown-amigaos/lib/libc.a(ctype_isdigit.o)
                0x0032e6a8                _isdigit
 .text          0x0032e704       0x38 /opt/netsurf/m68k-unknown-amigaos/cross/lib/gcc/m68k-unknown-amigaos/3.4.6/../../../../m68k-unknown-amigaos/lib/libc.a(string_strpbrk.o)
                0x0032e704                _strpbrk
 .text          0x0032e73c      0x1bc /opt/netsurf/m68k-unknown-amigaos/cross/lib/gcc/m68k-unknown-amigaos/3.4.6/../../../../m68k-unknown-amigaos/lib/libc.a(stdio_fwrite.o)
                0x0032e73c                _fwrite
 .text          0x0032e8f8       0x38 /opt/netsurf/m68k-unknown-amigaos/cross/lib/gcc/m68k-unknown-amigaos/3.4.6/../../../../m68k-unknown-amigaos/lib/libc.a(string_strspn.o)
                0x0032e8f8                _strspn
 .text          0x0032e930       0x14 /opt/netsurf/m68k-unknown-amigaos/cross/lib/gcc/m68k-unknown-amigaos/3.4.6/../../../../m68k-unknown-amigaos/lib/libc.a(time_localtime.o)
                0x0032e930                _localtime
 .text          0x0032e944       0x10 /opt/netsurf/m68k-unknown-amigaos/cross/lib/gcc/m68k-unknown-amigaos/3.4.6/../../../../m68k-unknown-amigaos/lib/libc.a(stdlib_rand.o)
                0x0032e944                _rand
 .text          0x0032e954       0x50 /opt/netsurf/m68k-unknown-amigaos/cross/lib/gcc/m68k-unknown-amigaos/3.4.6/../../../../m68k-unknown-amigaos/lib/libc.a(stdio_setbuf.o)
                0x0032e954                _setbuf
 .text          0x0032e9a4      0x12c /opt/netsurf/m68k-unknown-amigaos/cross/lib/gcc/m68k-unknown-amigaos/3.4.6/../../../../m68k-unknown-amigaos/lib/libc.a(locale_setlocale.o)
                0x0032e9a6                _setlocale
 .text          0x0032ead0       0x78 /opt/netsurf/m68k-unknown-amigaos/cross/lib/gcc/m68k-unknown-amigaos/3.4.6/../../../../m68k-unknown-amigaos/lib/libc.a(ctype_isspace.o)
                0x0032ead0                _isspace
 .text          0x0032eb48       0xc0 /opt/netsurf/m68k-unknown-amigaos/cross/lib/gcc/m68k-unknown-amigaos/3.4.6/../../../../m68k-unknown-amigaos/lib/libc.a(string_memset.o)
                0x0032eb48                _memset
 .text          0x0032ec08       0x18 /opt/netsurf/m68k-unknown-amigaos/cross/lib/gcc/m68k-unknown-amigaos/3.4.6/../../../../m68k-unknown-amigaos/lib/libc.a(time_ctime.o)
                0x0032ec08                _ctime
 .text          0x0032ec20       0x40 /opt/netsurf/m68k-unknown-amigaos/cross/lib/gcc/m68k-unknown-amigaos/3.4.6/../../../../m68k-unknown-amigaos/lib/libc.a(stdlib_setjmp.o)
                0x0032ec3c                _longjmp
                0x0032ec20                _setjmp
 .text          0x0032ec60       0x24 /opt/netsurf/m68k-unknown-amigaos/cross/lib/gcc/m68k-unknown-amigaos/3.4.6/../../../../m68k-unknown-amigaos/lib/libc.a(string_strcat.o)
                0x0032ec60                _strcat
 .text          0x0032ec84       0x7c /opt/netsurf/m68k-unknown-amigaos/cross/lib/gcc/m68k-unknown-amigaos/3.4.6/../../../../m68k-unknown-amigaos/lib/libc.a(stdlib_exit.o)
                0x0032ec84                __exit
                0x0032eca8                __Exit
                0x0032eccc                _exit
 .text          0x0032ed00       0xe0 /opt/netsurf/m68k-unknown-amigaos/cross/lib/gcc/m68k-unknown-amigaos/3.4.6/../../../../m68k-unknown-amigaos/lib/libc.a(stdlib_atexit.o)
                0x0032ed00                _atexit
                0x0032ed9c                ___exit_trap_trigger
 .text          0x0032ede0      0xe98 /opt/netsurf/m68k-unknown-amigaos/cross/lib/gcc/m68k-unknown-amigaos/3.4.6/../../../../m68k-unknown-amigaos/lib/libc.a(time_strftime.o)
                0x0032fb08                _strftime
 .text          0x0032fc78      0x19c /opt/netsurf/m68k-unknown-amigaos/cross/lib/gcc/m68k-unknown-amigaos/3.4.6/../../../../m68k-unknown-amigaos/lib/libc.a(time_mktime.o)
                0x0032fc84                _mktime
 .text          0x0032fe14       0xe8 /opt/netsurf/m68k-unknown-amigaos/cross/lib/gcc/m68k-unknown-amigaos/3.4.6/../../../../m68k-unknown-amigaos/lib/libc.a(string_strerror.o)
                0x0032fe24                _strerror
 .text          0x0032fefc       0x54 /opt/netsurf/m68k-unknown-amigaos/cross/lib/gcc/m68k-unknown-amigaos/3.4.6/../../../../m68k-unknown-amigaos/lib/libc.a(ctype_toupper.o)
                0x0032fefc                _toupper
 .text          0x0032ff50      0x138 /opt/netsurf/m68k-unknown-amigaos/cross/lib/gcc/m68k-unknown-amigaos/3.4.6/../../../../m68k-unknown-amigaos/lib/libc.a(stdlib_strtol.o)
                0x0032ff50                _strtol
 .text          0x00330088       0x38 /opt/netsurf/m68k-unknown-amigaos/cross/lib/gcc/m68k-unknown-amigaos/3.4.6/../../../../m68k-unknown-amigaos/lib/libc.a(string_strcspn.o)
                0x00330088                _strcspn
 .text          0x003300c0       0x1c /opt/netsurf/m68k-unknown-amigaos/cross/lib/gcc/m68k-unknown-amigaos/3.4.6/../../../../m68k-unknown-amigaos/lib/libc.a(string_strtok.o)
                0x003300c0                _strtok
 .text          0x003300dc       0xe4 /opt/netsurf/m68k-unknown-amigaos/cross/lib/gcc/m68k-unknown-amigaos/3.4.6/../../../../m68k-unknown-amigaos/lib/libc.a(string_memcmp.o)
                0x003300dc                _memcmp
 .text          0x003301c0       0x64 /opt/netsurf/m68k-unknown-amigaos/cross/lib/gcc/m68k-unknown-amigaos/3.4.6/../../../../m68k-unknown-amigaos/lib/libc.a(ctype_isalnum.o)
                0x003301c0                _isalnum
 .text          0x00330224       0x58 /opt/netsurf/m68k-unknown-amigaos/cross/lib/gcc/m68k-unknown-amigaos/3.4.6/../../../../m68k-unknown-amigaos/lib/libc.a(ctype_iscntrl.o)
                0x00330224                _iscntrl
 .text          0x0033027c       0x5c /opt/netsurf/m68k-unknown-amigaos/cross/lib/gcc/m68k-unknown-amigaos/3.4.6/../../../../m68k-unknown-amigaos/lib/libc.a(ctype_isgraph.o)
                0x0033027c                _isgraph
 .text          0x003302d8       0x5c /opt/netsurf/m68k-unknown-amigaos/cross/lib/gcc/m68k-unknown-amigaos/3.4.6/../../../../m68k-unknown-amigaos/lib/libc.a(ctype_islower.o)
                0x003302d8                _islower
 .text          0x00330334       0x5c /opt/netsurf/m68k-unknown-amigaos/cross/lib/gcc/m68k-unknown-amigaos/3.4.6/../../../../m68k-unknown-amigaos/lib/libc.a(ctype_isprint.o)
                0x00330334                _isprint
 .text          0x00330390       0x80 /opt/netsurf/m68k-unknown-amigaos/cross/lib/gcc/m68k-unknown-amigaos/3.4.6/../../../../m68k-unknown-amigaos/lib/libc.a(ctype_ispunct.o)
                0x00330390                _ispunct
 .text          0x00330410       0x5c /opt/netsurf/m68k-unknown-amigaos/cross/lib/gcc/m68k-unknown-amigaos/3.4.6/../../../../m68k-unknown-amigaos/lib/libc.a(ctype_isupper.o)
                0x00330410                _isupper
 .text          0x0033046c       0x6c /opt/netsurf/m68k-unknown-amigaos/cross/lib/gcc/m68k-unknown-amigaos/3.4.6/../../../../m68k-unknown-amigaos/lib/libc.a(ctype_isxdigit.o)
                0x0033046c                _isxdigit
 .text          0x003304d8       0x28 /opt/netsurf/m68k-unknown-amigaos/cross/lib/gcc/m68k-unknown-amigaos/3.4.6/../../../../m68k-unknown-amigaos/lib/libc.a(stdlib_abort.o)
                0x003304d8                _abort
 .text          0x00330500       0x14 /opt/netsurf/m68k-unknown-amigaos/cross/lib/gcc/m68k-unknown-amigaos/3.4.6/../../../../m68k-unknown-amigaos/lib/libc.a(time_gmtime.o)
                0x00330500                _gmtime
 .text          0x00330514       0x80 /opt/netsurf/m68k-unknown-amigaos/cross/lib/gcc/m68k-unknown-amigaos/3.4.6/../../../../m68k-unknown-amigaos/lib/libc.a(time_gettimeofday.o)
                0x00330514                _gettimeofday
 .text          0x00330594       0xec /opt/netsurf/m68k-unknown-amigaos/cross/lib/gcc/m68k-unknown-amigaos/3.4.6/../../../../m68k-unknown-amigaos/lib/libc.a(string_memcpy.o)
                0x00330594                _memcpy
 .text          0x00330680       0x10 /opt/netsurf/m68k-unknown-amigaos/cross/lib/gcc/m68k-unknown-amigaos/3.4.6/../../../../m68k-unknown-amigaos/lib/libc.a(stdlib_mulsi3.o)
                0x00330680                ___mulsi3
 .text          0x00330690        0xc /opt/netsurf/m68k-unknown-amigaos/cross/lib/gcc/m68k-unknown-amigaos/3.4.6/../../../../m68k-unknown-amigaos/lib/libc.a(stdlib_divsi3.o)
                0x00330690                ___divsi3
 .text          0x0033069c       0x10 /opt/netsurf/m68k-unknown-amigaos/cross/lib/gcc/m68k-unknown-amigaos/3.4.6/../../../../m68k-unknown-amigaos/lib/libc.a(stdlib_modsi3.o)
                0x0033069c                ___modsi3
 .text          0x003306ac        0xc /opt/netsurf/m68k-unknown-amigaos/cross/lib/gcc/m68k-unknown-amigaos/3.4.6/../../../../m68k-unknown-amigaos/lib/libc.a(stdlib_udivsi3.o)
                0x003306ac                ___udivsi3
 .text          0x003306b8       0x60 /opt/netsurf/m68k-unknown-amigaos/cross/lib/gcc/m68k-unknown-amigaos/3.4.6/../../../../m68k-unknown-amigaos/lib/libc.a(stdlib_getenv.o)
                0x003306b8                _getenv
 .text          0x00330718       0x10 /opt/netsurf/m68k-unknown-amigaos/cross/lib/gcc/m68k-unknown-amigaos/3.4.6/../../../../m68k-unknown-amigaos/lib/libc.a(stdlib_umodsi3.o)
                0x00330718                ___umodsi3
 .text          0x00330728       0xa8 /opt/netsurf/m68k-unknown-amigaos/cross/lib/gcc/m68k-unknown-amigaos/3.4.6/../../../../m68k-unknown-amigaos/lib/libc.a(fcntl_lseek.o)
                0x00330728                _lseek
 .text          0x003307d0       0x98 /opt/netsurf/m68k-unknown-amigaos/cross/lib/gcc/m68k-unknown-amigaos/3.4.6/../../../../m68k-unknown-amigaos/lib/libc.a(fcntl_read.o)
                0x003307d0                _read
 .text          0x00330868       0xcc /opt/netsurf/m68k-unknown-amigaos/cross/lib/gcc/m68k-unknown-amigaos/3.4.6/../../../../m68k-unknown-amigaos/lib/libc.a(string_memchr.o)
                0x00330868                _memchr
 .text          0x00330934       0x68 /opt/netsurf/m68k-unknown-amigaos/cross/lib/gcc/m68k-unknown-amigaos/3.4.6/../../../../m68k-unknown-amigaos/lib/libc.a(fcntl_close.o)
                0x00330934                _close
 .text          0x0033099c       0x9c /opt/netsurf/m68k-unknown-amigaos/cross/lib/gcc/m68k-unknown-amigaos/3.4.6/../../../../m68k-unknown-amigaos/lib/libc.a(fcntl_write.o)
                0x0033099c                _write
 .text          0x00330a38       0xe4 /opt/netsurf/m68k-unknown-amigaos/cross/lib/gcc/m68k-unknown-amigaos/3.4.6/../../../../m68k-unknown-amigaos/lib/libc.a(stdio_fread.o)
                0x00330a38                _fread
 .text          0x00330b1c       0x24 /opt/netsurf/m68k-unknown-amigaos/cross/lib/gcc/m68k-unknown-amigaos/3.4.6/../../../../m68k-unknown-amigaos/lib/libc.a(stdio_ferror.o)
                0x00330b1c                _ferror
 .text          0x00330b40       0x3c /opt/netsurf/m68k-unknown-amigaos/cross/lib/gcc/m68k-unknown-amigaos/3.4.6/../../../../m68k-unknown-amigaos/lib/libc.a(unistd_fileno.o)
                0x00330b40                _fileno
 .text          0x00330b7c       0x14 /opt/netsurf/m68k-unknown-amigaos/cross/lib/gcc/m68k-unknown-amigaos/3.4.6/../../../../m68k-unknown-amigaos/lib/libc.a(unistd_dup.o)
                0x00330b7c                _dup
 .text          0x00330b90      0x160 /opt/netsurf/m68k-unknown-amigaos/cross/lib/gcc/m68k-unknown-amigaos/3.4.6/../../../../m68k-unknown-amigaos/lib/libc.a(stdio_puts.o)
                0x00330b90                _puts
 .text          0x00330cf0       0x6c /opt/netsurf/m68k-unknown-amigaos/cross/lib/gcc/m68k-unknown-amigaos/3.4.6/../../../../m68k-unknown-amigaos/lib/libc.a(stdlib_rand_r.o)
                0x00330cf0                _rand_r
 .text          0x00330d5c       0x1c /opt/netsurf/m68k-unknown-amigaos/cross/lib/gcc/m68k-unknown-amigaos/3.4.6/../../../../m68k-unknown-amigaos/lib/libc.a(ctype_isblank.o)
                0x00330d5c                _isblank
 .text          0x00330d78       0x18 /opt/netsurf/m68k-unknown-amigaos/cross/lib/gcc/m68k-unknown-amigaos/3.4.6/../../../../m68k-unknown-amigaos/lib/libc.a(time_gmtime_r.o)
                0x00330d78                _gmtime_r
 .text          0x00330d90       0x18 /opt/netsurf/m68k-unknown-amigaos/cross/lib/gcc/m68k-unknown-amigaos/3.4.6/../../../../m68k-unknown-amigaos/lib/libc.a(stdio_fseeko.o)
                0x00330d90                _fseeko
 .text          0x00330da8      0x834 /opt/netsurf/m68k-unknown-amigaos/cross/lib/gcc/m68k-unknown-amigaos/3.4.6/../../../../m68k-unknown-amigaos/lib/libc.a(string_strerror_r.o)
                0x00331574                _strerror_r
 .text          0x003315dc       0x68 /opt/netsurf/m68k-unknown-amigaos/cross/lib/gcc/m68k-unknown-amigaos/3.4.6/../../../../m68k-unknown-amigaos/lib/libc.a(string_strtok_r.o)
                0x003315dc                _strtok_r
 .text          0x00331644      0x160 /opt/netsurf/m68k-unknown-amigaos/cross/lib/gcc/m68k-unknown-amigaos/3.4.6/../../../../m68k-unknown-amigaos/lib/libc.a(stdio_fseek.o)
                0x00331644                _fseek
 .text          0x003317a4       0xbc /opt/netsurf/m68k-unknown-amigaos/cross/lib/gcc/m68k-unknown-amigaos/3.4.6/../../../../m68k-unknown-amigaos/lib/libc.a(stdio_ftell.o)
                0x003317a4                _ftell
 .text          0x00331860      0x128 /opt/netsurf/m68k-unknown-amigaos/cross/lib/gcc/m68k-unknown-amigaos/3.4.6/../../../../m68k-unknown-amigaos/lib/libc.a(stdlib_strtoul.o)
                0x00331860                _strtoul
 .text          0x00331988       0x24 /opt/netsurf/m68k-unknown-amigaos/cross/lib/gcc/m68k-unknown-amigaos/3.4.6/../../../../m68k-unknown-amigaos/lib/libc.a(stdio_feof.o)
                0x00331988                _feof
 .text          0x003319ac       0xac /opt/netsurf/m68k-unknown-amigaos/cross/lib/gcc/m68k-unknown-amigaos/3.4.6/../../../../m68k-unknown-amigaos/lib/libc.a(libgen_basename.o)
                0x003319b0                _basename
 .text          0x00331a58       0x40 /opt/netsurf/m68k-unknown-amigaos/cross/lib/gcc/m68k-unknown-amigaos/3.4.6/../../../../m68k-unknown-amigaos/lib/libc.a(signal_signal.o)
                0x00331a58                _signal
 .text          0x00331a98       0x14 /opt/netsurf/m68k-unknown-amigaos/cross/lib/gcc/m68k-unknown-amigaos/3.4.6/../../../../m68k-unknown-amigaos/lib/libc.a(unistd_getpid.o)
                0x00331a98                _getpid
 .text          0x00331aac       0x64 /opt/netsurf/m68k-unknown-amigaos/cross/lib/gcc/m68k-unknown-amigaos/3.4.6/../../../../m68k-unknown-amigaos/lib/libc.a(unistd_fdopen.o)
                0x00331aac                _fdopen
 .text          0x00331b10      0x13c /opt/netsurf/m68k-unknown-amigaos/cross/lib/gcc/m68k-unknown-amigaos/3.4.6/../../../../m68k-unknown-amigaos/lib/libc.a(stdio_setvbuf.o)
                0x00331b10                _setvbuf
 .text          0x00331c4c      0x1a0 /opt/netsurf/m68k-unknown-amigaos/cross/lib/gcc/m68k-unknown-amigaos/3.4.6/../../../../m68k-unknown-amigaos/lib/libc.a(stdlib_constructor_begin.o)
                0x00331d2e                __init
                0x00331d60                __fini
 .text          0x00331dec      0x1e0 /opt/netsurf/m68k-unknown-amigaos/cross/lib/gcc/m68k-unknown-amigaos/3.4.6/../../../../m68k-unknown-amigaos/lib/libc.a(stdlib_showerror.o)
                0x00331e24                ___show_error
 .text          0x00331fcc       0x20 /opt/netsurf/m68k-unknown-amigaos/cross/lib/gcc/m68k-unknown-amigaos/3.4.6/../../../../m68k-unknown-amigaos/lib/libc.a(stdlib_set_process_window.o)
                0x00331fcc                ___set_process_window
 .text          0x00331fec       0x2c /opt/netsurf/m68k-unknown-amigaos/cross/lib/gcc/m68k-unknown-amigaos/3.4.6/../../../../m68k-unknown-amigaos/lib/libc.a(stdlib_swapstack.o)
                0x00331fec                ___swap_stack_and_call
 .text          0x00332018        0xc /opt/netsurf/m68k-unknown-amigaos/cross/lib/gcc/m68k-unknown-amigaos/3.4.6/../../../../m68k-unknown-amigaos/lib/libc.a(stdlib_set_errno.o)
                0x00332018                ___set_errno
 .text          0x00332024      0x470 /opt/netsurf/m68k-unknown-amigaos/cross/lib/gcc/m68k-unknown-amigaos/3.4.6/../../../../m68k-unknown-amigaos/lib/libc.a(stdlib_slab.o)
                0x00332024                ___slab_allocate
                0x003323a0                ___slab_init
                0x003322c8                ___slab_free
                0x0033242a                ___slab_exit
 .text          0x00332494       0x3c /opt/netsurf/m68k-unknown-amigaos/cross/lib/gcc/m68k-unknown-amigaos/3.4.6/../../../../m68k-unknown-amigaos/lib/libc.a(signal_checkabort.o)
                0x00332494                ___check_abort
 .text          0x003324d0       0x64 /opt/netsurf/m68k-unknown-amigaos/cross/lib/gcc/m68k-unknown-amigaos/3.4.6/../../../../m68k-unknown-amigaos/lib/libc.a(time_convert_datestamp.o)
                0x003324d0                ___convert_datestamp_to_time
 .text          0x00332534      0x1a4 /opt/netsurf/m68k-unknown-amigaos/cross/lib/gcc/m68k-unknown-amigaos/3.4.6/../../../../m68k-unknown-amigaos/lib/libc.a(stdio_translateioerror.o)
                0x00332692                ___translate_access_io_error_to_errno
                0x0033266c                ___translate_io_error_to_errno
 .text          0x003326d8      0x15c /opt/netsurf/m68k-unknown-amigaos/cross/lib/gcc/m68k-unknown-amigaos/3.4.6/../../../../m68k-unknown-amigaos/lib/libc.a(stat_convertfileinfo.o)
                0x003326d8                ___convert_file_info_to_stat
 .text          0x00332834       0x34 /opt/netsurf/m68k-unknown-amigaos/cross/lib/gcc/m68k-unknown-amigaos/3.4.6/../../../../m68k-unknown-amigaos/lib/libc.a(stdio_findvacantiobentry.o)
                0x00332834                ___find_vacant_iob_entry
 .text          0x00332868      0x104 /opt/netsurf/m68k-unknown-amigaos/cross/lib/gcc/m68k-unknown-amigaos/3.4.6/../../../../m68k-unknown-amigaos/lib/libc.a(stdio_growiobtable.o)
                0x00332868                ___grow_iob_table
 .text          0x0033296c      0x104 /opt/netsurf/m68k-unknown-amigaos/cross/lib/gcc/m68k-unknown-amigaos/3.4.6/../../../../m68k-unknown-amigaos/lib/libc.a(stdio_growfdtable.o)
                0x0033296c                ___grow_fd_table
 .text          0x00332a70       0x78 /opt/netsurf/m68k-unknown-amigaos/cross/lib/gcc/m68k-unknown-amigaos/3.4.6/../../../../m68k-unknown-amigaos/lib/libc.a(stdio_flushiobwritebuffer.o)
                0x00332a70                ___flush_iob_write_buffer
 .text          0x00332ae8       0x34 /opt/netsurf/m68k-unknown-amigaos/cross/lib/gcc/m68k-unknown-amigaos/3.4.6/../../../../m68k-unknown-amigaos/lib/libc.a(stdio_findvacantfdentry.o)
                0x00332ae8                ___find_vacant_fd_entry
 .text          0x00332b1c       0x3c /opt/netsurf/m68k-unknown-amigaos/cross/lib/gcc/m68k-unknown-amigaos/3.4.6/../../../../m68k-unknown-amigaos/lib/libc.a(stdio_initializefd.o)
                0x00332b1c                ___initialize_fd
 .text          0x00332b58       0x6c /opt/netsurf/m68k-unknown-amigaos/cross/lib/gcc/m68k-unknown-amigaos/3.4.6/../../../../m68k-unknown-amigaos/lib/libc.a(stdio_get_file_descriptor.o)
                0x00332b58                ___get_file_descriptor
                0x00332b92                ___get_file_descriptor_dont_resolve
 .text          0x00332bc4       0x50 /opt/netsurf/m68k-unknown-amigaos/cross/lib/gcc/m68k-unknown-amigaos/3.4.6/../../../../m68k-unknown-amigaos/lib/libc.a(stdio_duplicate_fd.o)
                0x00332bc4                ___duplicate_fd
 .text          0x00332c14       0xa8 /opt/netsurf/m68k-unknown-amigaos/cross/lib/gcc/m68k-unknown-amigaos/3.4.6/../../../../m68k-unknown-amigaos/lib/libc.a(unistd_init_exit.o)
                0x00332c38                ___dtor_unistd_exit
                0x00332c14                ___ctor_unistd_init
 .text          0x00332cbc       0x9c /opt/netsurf/m68k-unknown-amigaos/cross/lib/gcc/m68k-unknown-amigaos/3.4.6/../../../../m68k-unknown-amigaos/lib/libc.a(stdlib_program_name.o)
                0x00332ce8                ___ctor_stdlib_program_name_init
                0x00332cbc                ___dtor_stdlib_program_name_exit
 .text          0x00332d58       0x5c /opt/netsurf/m68k-unknown-amigaos/cross/lib/gcc/m68k-unknown-amigaos/3.4.6/../../../../m68k-unknown-amigaos/lib/libc.a(stdio_iobhookentry.o)
                0x00332d58                ___iob_hook_entry
 .text          0x00332db4       0x4c /opt/netsurf/m68k-unknown-amigaos/cross/lib/gcc/m68k-unknown-amigaos/3.4.6/../../../../m68k-unknown-amigaos/lib/libc.a(stdio_initializeiob.o)
                0x00332db4                ___initialize_iob
 .text          0x00332e00       0x78 /opt/netsurf/m68k-unknown-amigaos/cross/lib/gcc/m68k-unknown-amigaos/3.4.6/../../../../m68k-unknown-amigaos/lib/libc.a(stdio_remove_fd_alias.o)
                0x00332e00                ___remove_fd_alias
 .text          0x00332e78       0x40 /opt/netsurf/m68k-unknown-amigaos/cross/lib/gcc/m68k-unknown-amigaos/3.4.6/../../../../m68k-unknown-amigaos/lib/libc.a(stdio_parent_of_fh.o)
                0x00332e78                ___safe_parent_of_file_handle
 .text          0x00332eb8       0x44 /opt/netsurf/m68k-unknown-amigaos/cross/lib/gcc/m68k-unknown-amigaos/3.4.6/../../../../m68k-unknown-amigaos/lib/libc.a(stdio_examine_fh.o)
                0x00332eb8                ___safe_examine_file_handle
 .text          0x00332efc      0x188 /opt/netsurf/m68k-unknown-amigaos/cross/lib/gcc/m68k-unknown-amigaos/3.4.6/../../../../m68k-unknown-amigaos/lib/libc.a(stdio_grow_file.o)
                0x00332efc                ___grow_file_size
 .text          0x00333084       0xa4 /opt/netsurf/m68k-unknown-amigaos/cross/lib/gcc/m68k-unknown-amigaos/3.4.6/../../../../m68k-unknown-amigaos/lib/libc.a(stdio_perror.o)
                0x00333098                _perror
 .text          0x00333128       0x4c /opt/netsurf/m68k-unknown-amigaos/cross/lib/gcc/m68k-unknown-amigaos/3.4.6/../../../../m68k-unknown-amigaos/lib/libc.a(stdio_vsprintf_hook_entry.o)
                0x00333128                ___vsprintf_hook_entry
 .text          0x00333174       0x70 /opt/netsurf/m68k-unknown-amigaos/cross/lib/gcc/m68k-unknown-amigaos/3.4.6/../../../../m68k-unknown-amigaos/lib/libc.a(stdio_vsnprintf_hook_entry.o)
                0x00333174                ___vsnprintf_hook_entry
 .text          0x003331e4      0x27c /opt/netsurf/m68k-unknown-amigaos/cross/lib/gcc/m68k-unknown-amigaos/3.4.6/../../../../m68k-unknown-amigaos/lib/libc.a(locale_init_exit.o)
                0x0033334c                ___dtor_locale_exit
                0x003333ea                ___ctor_locale_init
                0x0033324a                ___locale_exit
                0x003331e4                ___close_all_locales
                0x003332f6                ___locale_init
 .text          0x00333460       0x40 /opt/netsurf/m68k-unknown-amigaos/cross/lib/gcc/m68k-unknown-amigaos/3.4.6/../../../../m68k-unknown-amigaos/lib/libc.a(string_strlcpy.o)
                0x00333460                _strlcpy
 .text          0x003334a0       0x6c /opt/netsurf/m68k-unknown-amigaos/cross/lib/gcc/m68k-unknown-amigaos/3.4.6/../../../../m68k-unknown-amigaos/lib/libc.a(string_strlcat.o)
                0x003334a0                _strlcat
 .text          0x0033350c       0x60 /opt/netsurf/m68k-unknown-amigaos/cross/lib/gcc/m68k-unknown-amigaos/3.4.6/../../../../m68k-unknown-amigaos/lib/libc.a(stdio_sscanf_hook_entry.o)
                0x0033350c                ___sscanf_hook_entry
 .text          0x0033356c      0x1a0 /opt/netsurf/m68k-unknown-amigaos/cross/lib/gcc/m68k-unknown-amigaos/3.4.6/../../../../m68k-unknown-amigaos/lib/libc.a(stdio_fgetc.o)
                0x0033356c                ___fgetc
                0x0033362a                _fgetc
                0x003335d2                ___fgetc_check
 .text          0x0033370c       0x24 /opt/netsurf/m68k-unknown-amigaos/cross/lib/gcc/m68k-unknown-amigaos/3.4.6/../../../../m68k-unknown-amigaos/lib/libc.a(stdio_clearerr.o)
                0x0033370c                _clearerr
 .text          0x00333730       0xb8 /opt/netsurf/m68k-unknown-amigaos/cross/lib/gcc/m68k-unknown-amigaos/3.4.6/../../../../m68k-unknown-amigaos/lib/libc.a(stdio_ungetc.o)
                0x00333730                _ungetc
 .text          0x003337e8       0xac /opt/netsurf/m68k-unknown-amigaos/cross/lib/gcc/m68k-unknown-amigaos/3.4.6/../../../../m68k-unknown-amigaos/lib/libc.a(stdio_dropiobreadbuffer.o)
                0x003337e8                ___drop_iob_read_buffer
 .text          0x00333894       0x34 /opt/netsurf/m68k-unknown-amigaos/cross/lib/gcc/m68k-unknown-amigaos/3.4.6/../../../../m68k-unknown-amigaos/lib/libc.a(time_localtime_r.o)
                0x00333894                _localtime_r
 .text          0x003338c8       0x1c /opt/netsurf/m68k-unknown-amigaos/cross/lib/gcc/m68k-unknown-amigaos/3.4.6/../../../../m68k-unknown-amigaos/lib/libc.a(time_asctime.o)
                0x003338c8                _asctime
 .text          0x003338e4      0x170 /opt/netsurf/m68k-unknown-amigaos/cross/lib/gcc/m68k-unknown-amigaos/3.4.6/../../../../m68k-unknown-amigaos/lib/libc.a(time_data.o)
                0x00333956                ___week_day_names
                0x003339a2                ___abbreviated_month_names
                0x00333900                ___abbreviated_week_day_names
                0x00333a24                ___month_names
 .text          0x00333a54       0x90 /opt/netsurf/m68k-unknown-amigaos/cross/lib/gcc/m68k-unknown-amigaos/3.4.6/../../../../m68k-unknown-amigaos/lib/libc.a(time_numbertostring.o)
                0x00333a54                ___number_to_string
 .text          0x00333ae4       0x98 /opt/netsurf/m68k-unknown-amigaos/cross/lib/gcc/m68k-unknown-amigaos/3.4.6/../../../../m68k-unknown-amigaos/lib/libc.a(time_days_per_date.o)
                0x00333ae4                ___calculate_days_per_date
 .text          0x00333b7c       0x94 /opt/netsurf/m68k-unknown-amigaos/cross/lib/gcc/m68k-unknown-amigaos/3.4.6/../../../../m68k-unknown-amigaos/lib/libc.a(time_convert_time.o)
                0x00333b7c                ___convert_time_to_datestamp
 .text          0x00333c10       0x98 /opt/netsurf/m68k-unknown-amigaos/cross/lib/gcc/m68k-unknown-amigaos/3.4.6/../../../../m68k-unknown-amigaos/lib/libc.a(time_weekday.o)
                0x00333c1c                ___calculate_weekday
 .text          0x00333ca8       0xb4 /opt/netsurf/m68k-unknown-amigaos/cross/lib/gcc/m68k-unknown-amigaos/3.4.6/../../../../m68k-unknown-amigaos/lib/libc.a(signal_raise.o)
                0x00333ca8                _raise
 .text          0x00333d5c       0x7c /opt/netsurf/m68k-unknown-amigaos/cross/lib/gcc/m68k-unknown-amigaos/3.4.6/../../../../m68k-unknown-amigaos/lib/libc.a(stdlib_termination_message.o)
                0x00333d7a                ___print_termination_message
 .text          0x00333dd8      0x184 /opt/netsurf/m68k-unknown-amigaos/cross/lib/gcc/m68k-unknown-amigaos/3.4.6/../../../../m68k-unknown-amigaos/lib/libc.a(unistd_timer.o)
                0x00333e5e                ___ctor_timer_init
                0x00333efc                ___dtor_timer_exit
 .text          0x00333f5c        0xc /opt/netsurf/m68k-unknown-amigaos/cross/lib/gcc/m68k-unknown-amigaos/3.4.6/../../../../m68k-unknown-amigaos/lib/libc.a(stdlib_udivsi4.o)
                0x00333f5c                ___udivsi4
 .text          0x00333f68        0xc /opt/netsurf/m68k-unknown-amigaos/cross/lib/gcc/m68k-unknown-amigaos/3.4.6/../../../../m68k-unknown-amigaos/lib/libc.a(stdlib_divsi4.o)
                0x00333f68                ___divsi4
 .text          0x00333f74       0xb0 /opt/netsurf/m68k-unknown-amigaos/cross/lib/gcc/m68k-unknown-amigaos/3.4.6/../../../../m68k-unknown-amigaos/lib/libc.a(unistd_dup2.o)
                0x00333f74                _dup2
 .text          0x00334024       0xd4 /opt/netsurf/m68k-unknown-amigaos/cross/lib/gcc/m68k-unknown-amigaos/3.4.6/../../../../m68k-unknown-amigaos/lib/libc.a(time_converttime.o)
                0x00334024                ___convert_time
 .text          0x003340f8        0x8 /opt/netsurf/m68k-unknown-amigaos/cross/lib/gcc/m68k-unknown-amigaos/3.4.6/../../../../m68k-unknown-amigaos/lib/libc.a(stdlib_get_errno.o)
                0x003340f8                ___get_errno
 .text          0x00334100       0x78 /opt/netsurf/m68k-unknown-amigaos/cross/lib/gcc/m68k-unknown-amigaos/3.4.6/../../../../m68k-unknown-amigaos/lib/libc.a(stdio_filliobreadbuffer.o)
                0x00334100                ___fill_iob_read_buffer
 .text          0x00334178      0x520 /opt/netsurf/m68k-unknown-amigaos/cross/lib/gcc/m68k-unknown-amigaos/3.4.6/../../../../m68k-unknown-amigaos/lib/libc.a(time_asctime_r.o)
                0x0033418a                ___asctime_r
                0x00334682                _asctime_r
 .text          0x00334698       0x4c /opt/netsurf/m68k-unknown-amigaos/cross/lib/gcc/m68k-unknown-amigaos/3.4.6/../../../../m68k-unknown-amigaos/lib/libnet.a(socket_send.o)
                0x00334698                _send
 .text          0x003346e4       0x24 /opt/netsurf/m68k-unknown-amigaos/cross/lib/gcc/m68k-unknown-amigaos/3.4.6/../../../../m68k-unknown-amigaos/lib/libnet.a(socket_select.o)
                0x003346e4                _select
 .text          0x00334708       0x4c /opt/netsurf/m68k-unknown-amigaos/cross/lib/gcc/m68k-unknown-amigaos/3.4.6/../../../../m68k-unknown-amigaos/lib/libnet.a(socket_recv.o)
                0x00334708                _recv
 .text          0x00334754       0x28 /opt/netsurf/m68k-unknown-amigaos/cross/lib/gcc/m68k-unknown-amigaos/3.4.6/../../../../m68k-unknown-amigaos/lib/libnet.a(socket_gethostbyname.o)
                0x00334754                _gethostbyname
 .text          0x0033477c       0x7c /opt/netsurf/m68k-unknown-amigaos/cross/lib/gcc/m68k-unknown-amigaos/3.4.6/../../../../m68k-unknown-amigaos/lib/libnet.a(socket_socket.o)
                0x0033477c                _socket
 .text          0x003347f8       0x44 /opt/netsurf/m68k-unknown-amigaos/cross/lib/gcc/m68k-unknown-amigaos/3.4.6/../../../../m68k-unknown-amigaos/lib/libnet.a(socket_connect.o)
                0x003347f8                _connect
 .text          0x0033483c       0x50 /opt/netsurf/m68k-unknown-amigaos/cross/lib/gcc/m68k-unknown-amigaos/3.4.6/../../../../m68k-unknown-amigaos/lib/libnet.a(socket_getsockopt.o)
                0x0033483c                _getsockopt
 .text          0x0033488c       0x44 /opt/netsurf/m68k-unknown-amigaos/cross/lib/gcc/m68k-unknown-amigaos/3.4.6/../../../../m68k-unknown-amigaos/lib/libnet.a(socket_getsockname.o)
                0x0033488c                _getsockname
 .text          0x003348d0       0x44 /opt/netsurf/m68k-unknown-amigaos/cross/lib/gcc/m68k-unknown-amigaos/3.4.6/../../../../m68k-unknown-amigaos/lib/libnet.a(socket_bind.o)
                0x003348d0                _bind
 .text          0x00334914       0x40 /opt/netsurf/m68k-unknown-amigaos/cross/lib/gcc/m68k-unknown-amigaos/3.4.6/../../../../m68k-unknown-amigaos/lib/libnet.a(socket_listen.o)
                0x00334914                _listen
 .text          0x00334954       0x44 /opt/netsurf/m68k-unknown-amigaos/cross/lib/gcc/m68k-unknown-amigaos/3.4.6/../../../../m68k-unknown-amigaos/lib/libnet.a(socket_get_descriptor.o)
                0x00334954                ___get_file_descriptor_socket
 .text          0x00334998      0x18c /opt/netsurf/m68k-unknown-amigaos/cross/lib/gcc/m68k-unknown-amigaos/3.4.6/../../../../m68k-unknown-amigaos/lib/libnet.a(socket_init_exit.o)
                0x00334a5c                ___ctor_socket_init
                0x00334998                ___dtor_socket_exit
 .text          0x00334b24     0x10ac /opt/netsurf/m68k-unknown-amigaos/cross/lib/gcc/m68k-unknown-amigaos/3.4.6/../../../../m68k-unknown-amigaos/lib/libnet.a(socket_select_signal.o)
                0x00334e3c                ___select
 .text          0x00335bd0      0x19c /opt/netsurf/m68k-unknown-amigaos/cross/lib/gcc/m68k-unknown-amigaos/3.4.6/../../../../m68k-unknown-amigaos/lib/libnet.a(socket_hook_entry.o)
                0x00335bd0                ___socket_hook_entry
 .text          0x00335d6c      0x1bc /opt/netsurf/m68k-unknown-amigaos/cross/lib/gcc/m68k-unknown-amigaos/3.4.6/../../../../m68k-unknown-amigaos/lib/libnet.a(socket_obtain_daemon.o)
                0x00335d9e                ___obtain_daemon_message
 .text          0x00335f28      0x114 /opt/netsurf/m68k-unknown-amigaos/cross/lib/gcc/m68k-unknown-amigaos/3.4.6/libgcc.a(_floatdisf.o)
                0x00335f28                ___floatdisf
 .text          0x0033603c       0x68 /opt/netsurf/m68k-unknown-amigaos/cross/lib/gcc/m68k-unknown-amigaos/3.4.6/libgcc.a(_clzdi2.o)
                0x0033603c                ___clzdi2
 .text          0x003360a4       0x50 /opt/netsurf/m68k-unknown-amigaos/cross/lib/gcc/m68k-unknown-amigaos/3.4.6/libgcc.a(_lshrdi3.o)
                0x003360a4                ___lshrdi3
 .text          0x003360f4       0x50 /opt/netsurf/m68k-unknown-amigaos/cross/lib/gcc/m68k-unknown-amigaos/3.4.6/libgcc.a(_ashldi3.o)
                0x003360f4                ___ashldi3
 .text          0x00336144      0x54c /opt/netsurf/m68k-unknown-amigaos/cross/lib/gcc/m68k-unknown-amigaos/3.4.6/libgcc.a(_divdi3.o)
                0x00336144                ___divdi3
 .text          0x00336690      0x5d8 /opt/netsurf/m68k-unknown-amigaos/cross/lib/gcc/m68k-unknown-amigaos/3.4.6/libgcc.a(_moddi3.o)
                0x00336690                ___moddi3
 .text          0x00336c68       0x84 /opt/netsurf/m68k-unknown-amigaos/cross/lib/gcc/m68k-unknown-amigaos/3.4.6/libgcc.a(_floatdidf.o)
                0x00336c68                ___floatdidf
 .text          0x00336cec       0x94 /opt/netsurf/m68k-unknown-amigaos/cross/lib/gcc/m68k-unknown-amigaos/3.4.6/libgcc.a(_muldi3.o)
                0x00336cec                ___muldi3
 .text          0x00336d80       0x58 /opt/netsurf/m68k-unknown-amigaos/cross/lib/gcc/m68k-unknown-amigaos/3.4.6/libgcc.a(_fixdfdi.o)
                0x00336d80                ___fixdfdi
 .text          0x00336dd8      0x5bc /opt/netsurf/m68k-unknown-amigaos/cross/lib/gcc/m68k-unknown-amigaos/3.4.6/libgcc.a(_umoddi3.o)
                0x00336dd8                ___umoddi3
 .text          0x00337394      0x510 /opt/netsurf/m68k-unknown-amigaos/cross/lib/gcc/m68k-unknown-amigaos/3.4.6/libgcc.a(_udivdi3.o)
                0x00337394                ___udivdi3
 .text          0x003378a4      0x100 /opt/netsurf/m68k-unknown-amigaos/cross/lib/gcc/m68k-unknown-amigaos/3.4.6/libgcc.a(_clz.o)
                0x003378a4                ___clz_tab
 .text          0x003379a4       0xa0 /opt/netsurf/m68k-unknown-amigaos/cross/lib/gcc/m68k-unknown-amigaos/3.4.6/libgcc.a(_fixunsdfdi.o)
                0x003379a4                ___fixunsdfdi
                0x00337a44                ___datadata_relocs = .
                0x00337a44                __etext = .
                0x00337a44                ___text_size = SIZEOF (.text)
                0x00337a44                . = ALIGN (0x0)

.data           0x00337a44     0x59d8
                0x00337a44                __sdata = .
 CONSTRUCTORS
                0x00337a44                . = ALIGN (0x4)
                0x00337a44                ___INIT_LIST__ = .
                0x00337a44        0x4 LONG 0x16
                0x00337a48        0x4 RELOC RELOC32 .text+0x1ec
                0x00337a4c        0x4 LONG 0x9 *ABS*+0x9
                0x00337a50        0x4 RELOC RELOC32 .text+0x118
                0x00337a54        0x4 LONG 0x7 *ABS*+0x7
                0x00337a58        0x4 RELOC RELOC32 .text+0x0
                0x00337a5c        0x4 LONG 0x2 *ABS*+0x2
                0x00337a60        0x4 RELOC RELOC32 .text+0x28
                0x00337a64        0x4 LONG 0x3 *ABS*+0x3
                0x00337a68        0x4 RELOC RELOC32 .text+0x2da
                0x00337a6c        0x4 LONG 0x6 *ABS*+0x6
                0x00337a70        0x4 RELOC RELOC32 .text+0xc0
                0x00337a74        0x4 LONG 0x5 *ABS*+0x5
                0x00337a78        0x4 RELOC RELOC32 .text+0x0
                0x00337a7c        0x4 LONG 0x2 *ABS*+0x2
                0x00337a80        0x4 RELOC RELOC32 .text+0x2c
                0x00337a84        0x4 LONG 0x9 *ABS*+0x9
                0x00337a88        0x4 RELOC RELOC32 .text+0x206
                0x00337a8c        0x4 LONG 0x2 *ABS*+0x2
                0x00337a90        0x4 RELOC RELOC32 .text+0x86
                0x00337a94        0x4 LONG 0x2 *ABS*+0x2
                0x00337a98        0x4 RELOC RELOC32 .text+0xc4
                0x00337a9c        0x4 LONG 0x4 *ABS*+0x4
                0x00337aa0        0x4 LONG 0x0
                0x00337aa4                . = ALIGN (0x4)
                0x00337aa4                ___EXIT_LIST__ = .
                0x00337aa4        0x4 LONG 0x18
                0x00337aa8        0x4 RELOC RELOC32 .text+0x174
                0x00337aac        0x4 LONG 0x9 *ABS*+0x9
                0x00337ab0        0x4 RELOC RELOC32 .text+0x8c
                0x00337ab4        0x4 LONG 0x7 *ABS*+0x7
                0x00337ab8        0x4 RELOC RELOC32 .text+0x10
                0x00337abc        0x4 LONG 0x2 *ABS*+0x2
                0x00337ac0        0x4 RELOC RELOC32 .text+0x0
                0x00337ac4        0x4 LONG 0x6 *ABS*+0x6
                0x00337ac8        0x4 RELOC RELOC32 .text+0x80
                0x00337acc        0x4 LONG 0x2 *ABS*+0x2
                0x00337ad0        0x4 RELOC RELOC32 .text+0x0
                0x00337ad4        0x4 LONG 0x2 *ABS*+0x2
                0x00337ad8        0x4 RELOC RELOC32 .text+0x0
                0x00337adc        0x4 LONG 0x5 *ABS*+0x5
                0x00337ae0        0x4 RELOC RELOC32 .text+0x24
                0x00337ae4        0x4 LONG 0x2 *ABS*+0x2
                0x00337ae8        0x4 RELOC RELOC32 .text+0x0
                0x00337aec        0x4 LONG 0x9 *ABS*+0x9
                0x00337af0        0x4 RELOC RELOC32 .text+0x168
                0x00337af4        0x4 LONG 0x2 *ABS*+0x2
                0x00337af8        0x4 RELOC RELOC32 .text+0x124
                0x00337afc        0x4 LONG 0x2 *ABS*+0x2
                0x00337b00        0x4 RELOC RELOC32 .text+0x0
                0x00337b04        0x4 LONG 0x4 *ABS*+0x4
                0x00337b08        0x4 LONG 0x0
                0x00337b0c                . = ALIGN (0x4)
                0x00337b0c                ___DTOR_LIST__ = .
                0x00337b0c        0x4 LONG 0x1
                0x00337b10        0x4 RELOC RELOC32 .text+0x43c
                0x00337b14        0x4 LONG 0x0
                0x00337b18                . = ALIGN (0x4)
                0x00337b18                ___CTOR_LIST__ = .
                0x00337b18        0x4 LONG 0x1
                0x00337b1c        0x4 RELOC RELOC32 .text+0x14c
                0x00337b20        0x4 LONG 0x0
 *(.data)
 .data          0x00337b24        0x4 build-newer-morphos/content_content.o
                0x00337b24                _content_list
 .data          0x00337b28       0x80 build-newer-morphos/content_urldb.o
 .data          0x00337ba8       0x14 build-newer-morphos/css_css.o
                0x00337ba8                _css_screen_dpi
 .data          0x00337bbc       0x60 build-newer-morphos/css_ruleset.o
                0x00337bc8                _css_background_table
 .data          0x00337c1c        0x4 build-newer-morphos/desktop_netsurf.o
                0x00337c1e                _verbose_log
                0x00337c1d                _netsurf_embedded
                0x00337c1c                _netsurf_quit
 .data          0x00337c20      0x354 build-newer-morphos/desktop_options.o
                0x00337c5e                _option_ca_bundle
                0x00337c6e                _option_homepage_url
                0x00337c84                _option_window_screen_width
                0x00337cc1                _option_target_blank
                0x00337c55                _option_animate_images
                0x00337c90                _option_scale
                0x00337c42                _option_accept_charset
                0x00337cc8                _option_table
                0x00337c6a                _option_cookie_jar
                0x00337cc4                _option_url_file
                0x00337cb2                _option_enable_PDF_password
                0x00337c26                _option_http_proxy_port
                0x00337c32                _option_http_proxy_auth_pass
                0x00337c46                _option_memory_cache_size
                0x00337c2e                _option_http_proxy_auth_user
                0x00337cb8                _option_max_fetchers_per_host
                0x00337cc2                _option_button_2_tab
                0x00337c4a                _option_disc_cache_age
                0x00337c88                _option_window_screen_height
                0x00337c5a                _option_font_default
                0x00337c54                _option_send_referer
                0x00337c9a                _option_margin_top
                0x00337cc3                _option_verbose_log
                0x00337c62                _option_ca_path
                0x00337c80                _option_window_height
                0x00337c74                _option_window_x
                0x00337c72                _option_url_suggestion
                0x00337cb0                _option_enable_loosening
                0x00337c2a                _option_http_proxy_auth
                0x00337c20                _option_http_proxy
                0x00337c7c                _option_window_width
                0x00337c3a                _option_font_min_size
                0x00337cc0                _option_suppress_curl_debug
                0x00337ca6                _option_margin_right
                0x00337c94                _option_incremental_reflow
                0x00337caa                _option_export_scale
                0x00337c22                _option_http_proxy_host
                0x00337c36                _option_font_size
                0x00337cb4                _option_max_fetchers
                0x00337ca2                _option_margin_left
                0x00337c4e                _option_block_ads
                0x00337c3e                _option_accept_language
                0x00337c66                _option_cookie_file
                0x00337c96                _option_min_reflow_period
                0x00337c56                _option_expire_url
                0x00337caf                _option_remove_backgrounds
                0x00337c78                _option_window_y
                0x00337cbc                _option_max_cached_fetch_handles
                0x00337c50                _option_minimum_gif_delay
                0x00337c9e                _option_margin_bottom
                0x00337cb1                _option_enable_PDF_compression
                0x00337cae                _option_suppress_images
                0x00337c8c                _option_toolbar_status_width
 .data          0x00337f74        0xc build-newer-morphos/desktop_print.o
                0x00337f7a                _html_redraw_printing_top_cropped
                0x00337f76                _html_redraw_printing_border
                0x00337f74                _html_redraw_printing
 .data          0x00337f80       0x14 build-newer-morphos/image_bmp.o
                0x00337f80                _bmp_bitmap_callbacks
 .data          0x00337f94       0x18 build-newer-morphos/image_gif.o
                0x00337f94                _gif_bitmap_callbacks
 .data          0x00337fac        0x4 build-newer-morphos/image_jpeg.o
 .data          0x00337fb0       0x80 build-newer-morphos/image_png.o
 .data          0x00338030      0x1e0 build-newer-morphos/mui_applicationclass.o
 .data          0x00338210        0xc build-newer-morphos/mui_bitmap.o
 .data          0x0033821c       0x28 build-newer-morphos/mui_browserclass.o
                0x0033821c                _global_pen_a
                0x00338220                _global_pen_b
 .data          0x00338244       0x3c build-newer-morphos/mui_downloadwindowclass.o
 .data          0x00338280        0xc build-newer-morphos/mui_fetch_file.o
 .data          0x0033828c        0xc build-newer-morphos/mui_font.o
 .data          0x00338298       0x30 build-newer-morphos/mui_gui.o
                0x003382ac                _KeymapBase
                0x003382a4                _IFFParseBase
                0x003382a8                _LocaleBase
                0x0033829c                _UtilityBase
                0x003382a0                _GfxBase
                0x00338298                _global_obj
 .data          0x003382c8       0x28 build-newer-morphos/mui_historypopstringclass.o
 .data          0x003382f0       0x18 build-newer-morphos/mui_hotlistwindowclass.o
 .data          0x00338308        0xc build-newer-morphos/mui_methodstack.o
 .data          0x00338314       0x24 build-newer-morphos/mui_netsurf.o
                0x00338316                _StartupMsgPort
 .data          0x00338338        0x8 build-newer-morphos/mui_plotters.o
 .data          0x00338340       0x28 build-newer-morphos/mui_popstringclass.o
 .data          0x00338368       0x14 build-newer-morphos/mui_quicklinkgroupclass.o
 .data          0x0033837c       0x14 build-newer-morphos/mui_quicklinkparentgroupclass.o
 .data          0x00338390        0xc build-newer-morphos/mui_schedule.o
 .data          0x0033839c        0x4 build-newer-morphos/mui_search.o
 .data          0x003383a0        0x8 build-newer-morphos/render_box.o
 .data          0x003383a8       0x10 build-newer-morphos/render_box_construct.o
                0x003383a8                _TARGET_SELF
                0x003383b4                _TARGET_BLANK
                0x003383b0                _TARGET_TOP
                0x003383ac                _TARGET_PARENT
 .data          0x003383b8       0x10 build-newer-morphos/render_html_redraw.o
                0x003383ba                _css_scrollbar_fg_colour
                0x003383b8                _html_redraw_debug
                0x003383c2                _css_scrollbar_arrow_colour
                0x003383be                _css_scrollbar_bg_colour
 .data          0x003383c8       0x80 build-newer-morphos/render_hubbub_binding.o
 .data          0x00338448       0x34 build-newer-morphos/render_list.o
 .data          0x0033847c        0x4 build-newer-morphos/render_textplain.o
 .data          0x00338480       0x20 build-newer-morphos/utils_utils.o
 .data          0x003384a0      0x17c /mnt/e/usr/local/amiga/m68k-amigaos/clib/extra/ns-lib/libxml2.a(entities.o)
 .data          0x0033861c        0x4 /mnt/e/usr/local/amiga/m68k-amigaos/clib/extra/ns-lib/libxml2.a(encoding.o)
 .data          0x00338620       0x10 /mnt/e/usr/local/amiga/m68k-amigaos/clib/extra/ns-lib/libxml2.a(parser.o)
                0x00338620                _xmlParserMaxDepth
 .data          0x00338630        0x8 /mnt/e/usr/local/amiga/m68k-amigaos/clib/extra/ns-lib/libxml2.a(tree.o)
                0x00338630                ___xmlRegisterCallbacks
 .data          0x00338638       0xe8 /mnt/e/usr/local/amiga/m68k-amigaos/clib/extra/ns-lib/libxml2.a(xmlIO.o)
 .data          0x00338720       0xd8 /mnt/e/usr/local/amiga/m68k-amigaos/clib/extra/ns-lib/libxml2.a(HTMLparser.o)
 .data          0x003387f8       0x38 /mnt/e/usr/local/amiga/m68k-amigaos/clib/extra/ns-lib/libxml2.a(HTMLtree.o)
 .data          0x00338830      0x144 /mnt/e/usr/local/amiga/m68k-amigaos/clib/extra/ns-lib/libxml2.a(xpath.o)
                0x00338830                _xmlXPathNINF
                0x00338840                _xmlXPathNAN
                0x00338838                _xmlXPathPINF
 .data          0x00338974        0x4 /mnt/e/usr/local/amiga/m68k-amigaos/clib/extra/ns-lib/libxml2.a(nanohttp.o)
 .data          0x00338978        0x8 /mnt/e/usr/local/amiga/m68k-amigaos/clib/extra/ns-lib/libxml2.a(catalog.o)
 .data          0x00338980      0x1ec /mnt/e/usr/local/amiga/m68k-amigaos/clib/extra/ns-lib/libxml2.a(globals.o)
                0x00338b44                _xmlMallocAtomic
                0x00338a60                _xmlDefaultSAXLocator
                0x003389f0                _htmlDefaultSAXHandler
                0x00338980                _docbDefaultSAXHandler
                0x00338b28                _xmlParserDebugEntities
                0x00338b4c                _xmlFree
                0x00338ae0                _xmlSaveNoEmptyTags
                0x00338ae4                _xmlTreeIndentString
                0x00338b14                _xmlLineNumbersDefaultValue
                0x00338b1c                _xmlLoadExtDtdDefaultValue
                0x00338b10                _xmlKeepBlanksDefaultValue
                0x00338b2c                _oldXMLWDcompatibility
                0x00338b18                _xmlPedanticParserDefaultValue
                0x00338af0                _xmlGenericErrorContext
                0x00338afc                _xmlOutputBufferCreateFilenameValue
                0x00338a70                _xmlDefaultSAXHandler
                0x00338b20                _xmlGetWarningsDefaultValue
                0x00338af8                _xmlGenericError
                0x00338af4                _xmlStructuredError
                0x00338b04                _xmlDeregisterNodeDefaultValue
                0x00338b24                _xmlDoValidityCheckingDefaultValue
                0x00338b34                _xmlBufferAllocScheme
                0x00338b30                _xmlDefaultBufferSize
                0x00338b00                _xmlParserInputBufferCreateFilenameValue
                0x00338b38                _xmlParserVersion
                0x00338ae8                _xmlIndentTreeOutput
                0x00338b3c                _xmlMemStrdup
                0x00338b08                _xmlRegisterNodeDefaultValue
                0x00338aec                _xmlStructuredErrorContext
                0x00338b0c                _xmlSubstituteEntitiesDefaultValue
                0x00338b40                _xmlRealloc
                0x00338b48                _xmlMalloc
 .data          0x00338b6c       0x40 /mnt/e/usr/local/amiga/m68k-amigaos/clib/extra/ns-lib/libxml2.a(xmlregexp.o)
                0x00338b8c                _forbiddenExp
                0x00338b6c                _emptyExp
 .data          0x00338bac        0xc /mnt/e/usr/local/amiga/m68k-amigaos/clib/extra/ns-lib/libxml2.a(xmlschemas.o)
 .data          0x00338bb8        0x8 /mnt/e/usr/local/amiga/m68k-amigaos/clib/extra/ns-lib/libxml2.a(xmlschemastypes.o)
 .data          0x00338bc0      0x6c0 /mnt/e/usr/local/amiga/m68k-amigaos/clib/extra/ns-lib/libxml2.a(xmlunicode.o)
 .data          0x00339280        0x8 /mnt/e/usr/local/amiga/m68k-amigaos/clib/extra/ns-lib/libxml2.a(relaxng.o)
 .data          0x00339288        0x4 /mnt/e/usr/local/amiga/m68k-amigaos/clib/extra/ns-lib/libxml2.a(SAX2.o)
 .data          0x0033928c       0x50 /mnt/e/usr/local/amiga/m68k-amigaos/clib/extra/ns-lib/libxml2.a(xmlwriter.o)
 .data          0x003392dc       0xac /mnt/e/usr/local/amiga/m68k-amigaos/clib/extra/ns-lib/libxml2.a(legacy.o)
 .data          0x00339388        0x8 /mnt/e/usr/local/amiga/m68k-amigaos/clib/extra/ns-lib/libxml2.a(schematron.o)
 .data          0x00339390       0x40 lib/libnsgif-0.0.3.a(src_libnsgif.o)
 .data          0x003393d0       0x38 /opt/netsurf/m68k-unknown-amigaos/env/lib/libtre.a(regerror.o)
 .data          0x00339408       0x70 /opt/netsurf/m68k-unknown-amigaos/env/lib/libtre.a(tre-parse.o)
                0x00339408                _tre_ctype_map
 .data          0x00339478       0x14 /opt/netsurf/m68k-unknown-amigaos/env/lib/libcurl.a(libcurl_la-easy.o)
                0x00339480                _Curl_crealloc
                0x00339484                _Curl_cfree
                0x00339478                _Curl_ccalloc
                0x00339488                _Curl_cmalloc
                0x0033947c                _Curl_cstrdup
 .data          0x0033948c       0x6c /opt/netsurf/m68k-unknown-amigaos/env/lib/libcurl.a(libcurl_la-version.o)
 .data          0x003394f8        0x4 /opt/netsurf/m68k-unknown-amigaos/env/lib/libcurl.a(libcurl_la-escape.o)
 .data          0x003394fc       0xc0 /opt/netsurf/m68k-unknown-amigaos/env/lib/libcurl.a(libcurl_la-curl_trc.o)
                0x0033951c                _Curl_trc_feat_read
                0x0033950c                _Curl_trc_feat_ftp
                0x00339514                _Curl_trc_feat_write
                0x00339504                _Curl_trc_feat_smtp
                0x003394fc                _Curl_trc_feat_ws
 .data          0x003395bc       0x8c /opt/netsurf/m68k-unknown-amigaos/env/lib/libcurl.a(libcurl_la-vtls.o)
                0x003395bc                _Curl_cft_ssl_proxy
                0x0033963c                _Curl_ssl
                0x003395fc                _Curl_cft_ssl
 .data          0x00339648        0x4 /opt/netsurf/m68k-unknown-amigaos/env/lib/libcurl.a(libcurl_la-url.o)
 .data          0x0033964c       0x80 /opt/netsurf/m68k-unknown-amigaos/env/lib/libcurl.a(libcurl_la-connect.o)
                0x0033968c                _Curl_cft_happy_eyeballs
                0x0033964c                _Curl_cft_setup
 .data          0x003396cc        0x4 /opt/netsurf/m68k-unknown-amigaos/env/lib/libcurl.a(libcurl_la-urlapi.o)
 .data          0x003396d0       0x30 /opt/netsurf/m68k-unknown-amigaos/env/lib/libcurl.a(libcurl_la-http.o)
 .data          0x00339700      0x100 /opt/netsurf/m68k-unknown-amigaos/env/lib/libcurl.a(libcurl_la-cf-socket.o)
                0x003397c0                _Curl_cft_tcp
                0x00339740                _Curl_cft_unix
                0x00339700                _Curl_cft_tcp_accept
                0x00339780                _Curl_cft_udp
 .data          0x00339800        0x8 /opt/netsurf/m68k-unknown-amigaos/env/lib/libcurl.a(libcurl_la-doh.o)
                0x00339800                _Curl_doh_trc
 .data          0x00339808       0x40 /opt/netsurf/m68k-unknown-amigaos/env/lib/libcurl.a(libcurl_la-cf-h1-proxy.o)
                0x00339808                _Curl_cft_h1_proxy
 .data          0x00339848       0x40 /opt/netsurf/m68k-unknown-amigaos/env/lib/libcurl.a(libcurl_la-http_proxy.o)
                0x00339848                _Curl_cft_http_proxy
 .data          0x00339888       0x40 /opt/netsurf/m68k-unknown-amigaos/env/lib/libcurl.a(libcurl_la-cf-haproxy.o)
                0x00339888                _Curl_cft_haproxy
 .data          0x003398c8       0x40 /opt/netsurf/m68k-unknown-amigaos/env/lib/libcurl.a(libcurl_la-socks.o)
                0x003398c8                _Curl_cft_socks_proxy
 .data          0x00339908       0x40 /opt/netsurf/m68k-unknown-amigaos/env/lib/libcurl.a(libcurl_la-cf-https-connect.o)
                0x00339908                _Curl_cft_http_connect
 .data          0x00339948       0x3c /opt/netsurf/m68k-unknown-amigaos/env/lib/libcurl.a(libcurl_la-ws.o)
 .data          0x00339984       0x18 /opt/netsurf/m68k-unknown-amigaos/env/lib/libcurl.a(libcurl_la-cw-out.o)
                0x00339984                _Curl_cwt_out
 .data          0x0033999c        0x4 /opt/netsurf/m68k-unknown-amigaos/env/lib/libcurl.a(libcurl_la-http_aws_sigv4.o)
 .data          0x003399a0       0x18 /opt/netsurf/m68k-unknown-amigaos/cross/lib/gcc/m68k-unknown-amigaos/3.4.6/../../../../m68k-unknown-amigaos/lib/libamisslauto.a(autoinit_assl.o)
                0x003399a4                _SocketBase
                0x003399a8                _AmiSSLBase
                0x003399ac                _AmiSSLExtBase
                0x003399b0                _AmiSSLAPIVersion
                0x003399b4                _UsesOpenSSLStructs
                0x003399a0                _AmiSSLMasterBase
 .data          0x003399b8        0x4 /opt/netsurf/m68k-unknown-amigaos/env/lib/libiconv.a(iconv.o)
                0x003399b8                __libiconv_version
 .data          0x003399bc      0x1a8 lib/libhubbub-0.0.2.a(src_treebuilder_initial.o)
                0x003399bc                _public_doctypes
 .data          0x00339b64       0x18 lib/libparserutils-0.0.1.a(src_charset_codec.o)
 .data          0x00339b7c        0x4 lib/libparserutils-0.0.1.a(src_charset_codecs_codec_utf8.o)
 .data          0x00339b80        0x4 lib/libparserutils-0.0.1.a(src_charset_codecs_codec_utf16.o)
 .data          0x00339b84     0x1758 lib/libparserutils-0.0.1.a(src_charset_codecs_codec_8859.o)
 .data          0x0033b2dc     0x1284 lib/libparserutils-0.0.1.a(src_charset_codecs_codec_ext8.o)
 .data          0x0033c560        0x4 lib/libparserutils-0.0.1.a(src_charset_codecs_codec_ascii.o)
 .data          0x0033c564        0x4 /opt/netsurf/m68k-unknown-amigaos/cross/lib/gcc/m68k-unknown-amigaos/3.4.6/../../../../m68k-unknown-amigaos/lib/libunix.a(stdlib_main.o)
                0x0033c564                ___stack_overflow
 .data          0x0033c568       0x20 /opt/netsurf/m68k-unknown-amigaos/cross/lib/gcc/m68k-unknown-amigaos/3.4.6/../../../../m68k-unknown-amigaos/lib/libunix.a(stdlib_malloc.o)
                0x0033c584                ___current_num_memory_chunks_allocated
                0x0033c57c                ___current_memory_allocated
                0x0033c568                ___memory_list
                0x0033c580                ___maximum_num_memory_chunks_allocated
                0x0033c574                ___memory_pool
                0x0033c578                ___maximum_memory_allocated
 .data          0x0033c588       0x10 /opt/netsurf/m68k-unknown-amigaos/cross/lib/gcc/m68k-unknown-amigaos/3.4.6/../../../../m68k-unknown-amigaos/lib/libunix.a(stdio_init_exit.o)
                0x0033c590                ___fd
                0x0033c588                ___iob
                0x0033c58c                ___num_iob
                0x0033c594                ___num_fd
 .data          0x0033c598        0xc /opt/netsurf/m68k-unknown-amigaos/cross/lib/gcc/m68k-unknown-amigaos/3.4.6/../../../../m68k-unknown-amigaos/lib/libunix.a(dirent_closedir.o)
                0x0033c598                ___directory_list
 .data          0x0033c5a4        0x8 /opt/netsurf/m68k-unknown-amigaos/cross/lib/gcc/m68k-unknown-amigaos/3.4.6/../../../../m68k-unknown-amigaos/lib/libunix.a(stdlib_arg.o)
                0x0033c5a4                ___argv
                0x0033c5a8                ___argc
 .data          0x0033c5ac        0x8 /opt/netsurf/m68k-unknown-amigaos/cross/lib/gcc/m68k-unknown-amigaos/3.4.6/../../../../m68k-unknown-amigaos/lib/libunix.a(stdio_file_init.o)
                0x0033c5b0                ___WBenchMsg
                0x0033c5ac                ___cache_line_size
 .data          0x0033c5b4        0x4 /opt/netsurf/m68k-unknown-amigaos/cross/lib/gcc/m68k-unknown-amigaos/3.4.6/../../../../m68k-unknown-amigaos/lib/libunix.a(stdlib_alloca_cleanup.o)
                0x0033c5b4                ___alloca_cleanup
 .data          0x0033c5b8        0x4 /opt/netsurf/m68k-unknown-amigaos/cross/lib/gcc/m68k-unknown-amigaos/3.4.6/../../../../m68k-unknown-amigaos/lib/libunix.a(unistd_unix_path_semantics.o)
                0x0033c5b8                ___unix_path_semantics
 .data          0x0033c5bc        0x4 /opt/netsurf/m68k-unknown-amigaos/cross/lib/gcc/m68k-unknown-amigaos/3.4.6/../../../../m68k-unknown-amigaos/lib/libunix.a(stdlib_expand_wildcard.o)
                0x0033c5bc                ___expand_wildcard_args
 .data          0x0033c5c0        0x4 /opt/netsurf/m68k-unknown-amigaos/cross/lib/gcc/m68k-unknown-amigaos/3.4.6/../../../../m68k-unknown-amigaos/lib/libunix.a(stdlib_expand_wildcard_check.o)
                0x0033c5c0                ___expand_wildcard_args_check
 .data          0x0033c5c4        0x8 /opt/netsurf/m68k-unknown-amigaos/cross/lib/gcc/m68k-unknown-amigaos/3.4.6/../../../../m68k-unknown-amigaos/lib/libunix.a(unistd_chdir_exit.o)
                0x0033c5c4                ___original_current_directory
                0x0033c5ca                ___unlock_current_directory
                0x0033c5c8                ___current_directory_changed
 .data          0x0033c5cc        0x4 /opt/netsurf/m68k-unknown-amigaos/cross/lib/gcc/m68k-unknown-amigaos/3.4.6/../../../../m68k-unknown-amigaos/lib/libunix.a(stdio_locksemaphorename.o)
                0x0033c5cc                ___file_lock_semaphore_name
 .data          0x0033c5d0       0x20 /opt/netsurf/m68k-unknown-amigaos/cross/lib/gcc/m68k-unknown-amigaos/3.4.6/../../../../m68k-unknown-amigaos/lib/libm.a(math_init_exit.o)
                0x0033c5e8                _MathIeeeDoubBasBase
                0x0033c5d8                ___huge_val_float
                0x0033c5d0                ___huge_val
                0x0033c5ec                _MathIeeeDoubTransBase
                0x0033c5dc                ___infinity
                0x0033c5e4                _MathIeeeSingBasBase
                0x0033c5e0                ___nan
 .data          0x0033c5f0        0x4 /opt/netsurf/m68k-unknown-amigaos/cross/lib/gcc/m68k-unknown-amigaos/3.4.6/../../../../m68k-unknown-amigaos/lib/libc.a(stdlib_rand.o)
                0x0033c5f0                ___random_seed
 .data          0x0033c5f4        0x4 /opt/netsurf/m68k-unknown-amigaos/cross/lib/gcc/m68k-unknown-amigaos/3.4.6/../../../../m68k-unknown-amigaos/lib/libc.a(stdlib_sysbase.o)
                0x0033c5f4                _SysBase
 .data          0x0033c5f8        0x4 /opt/netsurf/m68k-unknown-amigaos/cross/lib/gcc/m68k-unknown-amigaos/3.4.6/../../../../m68k-unknown-amigaos/lib/libc.a(stdlib_dosbase.o)
                0x0033c5f8                _DOSBase
 .data          0x0033c5fc       0xa8 /opt/netsurf/m68k-unknown-amigaos/cross/lib/gcc/m68k-unknown-amigaos/3.4.6/../../../../m68k-unknown-amigaos/lib/libc.a(stdlib_exit.o)
                0x0033c6a0                ___exit_blocked
                0x0033c600                ___exit_jmp_buf
                0x0033c5fc                ___exit_value
 .data          0x0033c6a4        0x4 /opt/netsurf/m68k-unknown-amigaos/cross/lib/gcc/m68k-unknown-amigaos/3.4.6/../../../../m68k-unknown-amigaos/lib/libc.a(errno_data.o)
                0x0033c6a4                _errno
 .data          0x0033c6a8      0x154 /opt/netsurf/m68k-unknown-amigaos/cross/lib/gcc/m68k-unknown-amigaos/3.4.6/../../../../m68k-unknown-amigaos/lib/libc.a(string_strerror_r.o)
 .data          0x0033c7fc        0x4 /opt/netsurf/m68k-unknown-amigaos/cross/lib/gcc/m68k-unknown-amigaos/3.4.6/../../../../m68k-unknown-amigaos/lib/libc.a(signal_data.o)
                0x0033c7fc                ___check_abort_enabled
 .data          0x0033c800       0x30 /opt/netsurf/m68k-unknown-amigaos/cross/lib/gcc/m68k-unknown-amigaos/3.4.6/../../../../m68k-unknown-amigaos/lib/libc.a(stdlib_showerror.o)
 .data          0x0033c830        0x4 /opt/netsurf/m68k-unknown-amigaos/cross/lib/gcc/m68k-unknown-amigaos/3.4.6/../../../../m68k-unknown-amigaos/lib/libc.a(stdlib_oslibversion.o)
                0x0033c830                ___minimum_os_lib_version
 .data          0x0033c834        0x4 /opt/netsurf/m68k-unknown-amigaos/cross/lib/gcc/m68k-unknown-amigaos/3.4.6/../../../../m68k-unknown-amigaos/lib/libc.a(stdlib_utilitybase.o)
                0x0033c834                ___UtilityBase
 .data          0x0033c838        0x4 /opt/netsurf/m68k-unknown-amigaos/cross/lib/gcc/m68k-unknown-amigaos/3.4.6/../../../../m68k-unknown-amigaos/lib/libc.a(stdlib_osliberror.o)
                0x0033c838                ___minimum_os_lib_error
 .data          0x0033c83c        0x4 /opt/netsurf/m68k-unknown-amigaos/cross/lib/gcc/m68k-unknown-amigaos/3.4.6/../../../../m68k-unknown-amigaos/lib/libc.a(stdlib_disablerequesters.o)
                0x0033c83c                ___disable_dos_requesters
 .data          0x0033c840        0x4 /opt/netsurf/m68k-unknown-amigaos/cross/lib/gcc/m68k-unknown-amigaos/3.4.6/../../../../m68k-unknown-amigaos/lib/libc.a(stdlib_getdefstacksize.o)
                0x0033c840                ___get_default_stack_size
 .data          0x0033c844        0x4 /opt/netsurf/m68k-unknown-amigaos/cross/lib/gcc/m68k-unknown-amigaos/3.4.6/../../../../m68k-unknown-amigaos/lib/libc.a(stdlib_stacksize.o)
                0x0033c844                ___stack_size
 .data          0x0033c848        0x4 /opt/netsurf/m68k-unknown-amigaos/cross/lib/gcc/m68k-unknown-amigaos/3.4.6/../../../../m68k-unknown-amigaos/lib/libc.a(stdlib_isresident.o)
                0x0033c848                ___is_resident
 .data          0x0033c84c        0x4 /opt/netsurf/m68k-unknown-amigaos/cross/lib/gcc/m68k-unknown-amigaos/3.4.6/../../../../m68k-unknown-amigaos/lib/libc.a(stdlib_detach.o)
                0x0033c84c                ___detach
 .data          0x0033c850        0x4 /opt/netsurf/m68k-unknown-amigaos/cross/lib/gcc/m68k-unknown-amigaos/3.4.6/../../../../m68k-unknown-amigaos/lib/libc.a(stdlib_checkdetach.o)
                0x0033c850                ___check_detach
 .data          0x0033c854        0x4 /opt/netsurf/m68k-unknown-amigaos/cross/lib/gcc/m68k-unknown-amigaos/3.4.6/../../../../m68k-unknown-amigaos/lib/libc.a(stdlib_priority.o)
                0x0033c854                ___priority
 .data          0x0033c858        0x4 /opt/netsurf/m68k-unknown-amigaos/cross/lib/gcc/m68k-unknown-amigaos/3.4.6/../../../../m68k-unknown-amigaos/lib/libc.a(stdlib_process_name.o)
                0x0033c858                ___process_name
 .data          0x0033c85c        0x4 /opt/netsurf/m68k-unknown-amigaos/cross/lib/gcc/m68k-unknown-amigaos/3.4.6/../../../../m68k-unknown-amigaos/lib/libc.a(stdio_nostdio.o)
                0x0033c85c                ___no_standard_io
 .data          0x0033c860        0x4 /opt/netsurf/m68k-unknown-amigaos/cross/lib/gcc/m68k-unknown-amigaos/3.4.6/../../../../m68k-unknown-amigaos/lib/libc.a(stdlib_threshold.o)
                0x0033c860                ___free_memory_threshold
 .data          0x0033c864       0xf4 /opt/netsurf/m68k-unknown-amigaos/cross/lib/gcc/m68k-unknown-amigaos/3.4.6/../../../../m68k-unknown-amigaos/lib/libc.a(stdlib_slab.o)
                0x0033c864                ___slab_data
 .data          0x0033c958        0x4 /opt/netsurf/m68k-unknown-amigaos/cross/lib/gcc/m68k-unknown-amigaos/3.4.6/../../../../m68k-unknown-amigaos/lib/libc.a(stdlib_slab_max_size.o)
                0x0033c958                ___slab_max_size
 .data          0x0033c95c        0x4 /opt/netsurf/m68k-unknown-amigaos/cross/lib/gcc/m68k-unknown-amigaos/3.4.6/../../../../m68k-unknown-amigaos/lib/libc.a(stdlib_default_pool_size.o)
                0x0033c95c                ___default_pool_size
 .data          0x0033c960        0x4 /opt/netsurf/m68k-unknown-amigaos/cross/lib/gcc/m68k-unknown-amigaos/3.4.6/../../../../m68k-unknown-amigaos/lib/libc.a(stdlib_default_puddle_size.o)
                0x0033c960                ___default_puddle_size
 .data          0x0033c964      0x400 /opt/netsurf/m68k-unknown-amigaos/cross/lib/gcc/m68k-unknown-amigaos/3.4.6/../../../../m68k-unknown-amigaos/lib/libc.a(unistd_currentpathname.o)
                0x0033c964                ___current_path_name
 .data          0x0033cd64        0x4 /opt/netsurf/m68k-unknown-amigaos/cross/lib/gcc/m68k-unknown-amigaos/3.4.6/../../../../m68k-unknown-amigaos/lib/libc.a(unistd_unlink_retries.o)
                0x0033cd64                ___unlink_retries
 .data          0x0033cd68       0x3c /opt/netsurf/m68k-unknown-amigaos/cross/lib/gcc/m68k-unknown-amigaos/3.4.6/../../../../m68k-unknown-amigaos/lib/libc.a(unistd_init_exit.o)
                0x0033cd74                ___unlink_semaphore
                0x0033cd68                ___unlink_list
 .data          0x0033cda4        0x4 /opt/netsurf/m68k-unknown-amigaos/cross/lib/gcc/m68k-unknown-amigaos/3.4.6/../../../../m68k-unknown-amigaos/lib/libc.a(stdlib_shell_escape.o)
                0x0033cda4                ___shell_escape_character
 .data          0x0033cda8        0x4 /opt/netsurf/m68k-unknown-amigaos/cross/lib/gcc/m68k-unknown-amigaos/3.4.6/../../../../m68k-unknown-amigaos/lib/libc.a(stdlib_program_name.o)
                0x0033cda8                ___program_name
 .data          0x0033cdac        0x4 /opt/netsurf/m68k-unknown-amigaos/cross/lib/gcc/m68k-unknown-amigaos/3.4.6/../../../../m68k-unknown-amigaos/lib/libc.a(stdlib_stdio_window_spec.o)
                0x0033cdac                ___stdio_window_specification
 .data          0x0033cdb0        0x4 /opt/netsurf/m68k-unknown-amigaos/cross/lib/gcc/m68k-unknown-amigaos/3.4.6/../../../../m68k-unknown-amigaos/lib/libc.a(signal_mask.o)
                0x0033cdb0                ___break_signal_mask
 .data          0x0033cdb4      0x620 /opt/netsurf/m68k-unknown-amigaos/cross/lib/gcc/m68k-unknown-amigaos/3.4.6/../../../../m68k-unknown-amigaos/lib/libc.a(locale_init_exit.o)
                0x0033cdb4                ___LocaleBase
                0x0033cdd4                ___locale_name_table
                0x0033cdbc                ___locale_table
                0x0033cdb8                ___default_locale
 .data          0x0033d3d4       0x20 /opt/netsurf/m68k-unknown-amigaos/cross/lib/gcc/m68k-unknown-amigaos/3.4.6/../../../../m68k-unknown-amigaos/lib/libc.a(signal_raise.o)
                0x0033d3f0                ___signals_blocked
                0x0033d3d4                ___signal_handler_table
 .data          0x0033d3f4       0x10 /opt/netsurf/m68k-unknown-amigaos/cross/lib/gcc/m68k-unknown-amigaos/3.4.6/../../../../m68k-unknown-amigaos/lib/libc.a(unistd_timer.o)
                0x0033d3f4                ___timer_port
                0x0033d3f8                ___timer_busy
                0x0033d3fe                ___timer_request
                0x0033d3fa                ___TimerBase
 .data          0x0033d404        0x4 /opt/netsurf/m68k-unknown-amigaos/cross/lib/gcc/m68k-unknown-amigaos/3.4.6/../../../../m68k-unknown-amigaos/lib/libc.a(stdlib_slab_purge_threshold.o)
                0x0033d404                ___slab_purge_threshold
 .data          0x0033d408        0x4 /opt/netsurf/m68k-unknown-amigaos/cross/lib/gcc/m68k-unknown-amigaos/3.4.6/../../../../m68k-unknown-amigaos/lib/libc.a(locale_open_locale.o)
                0x0033d408                ___open_locale
 .data          0x0033d40c        0x8 /opt/netsurf/m68k-unknown-amigaos/cross/lib/gcc/m68k-unknown-amigaos/3.4.6/../../../../m68k-unknown-amigaos/lib/libnet.a(socket_init_exit.o)
                0x0033d40c                _h_errno
                0x0033d410                ___SocketBase
 .data          0x0033d414        0x4 /opt/netsurf/m68k-unknown-amigaos/cross/lib/gcc/m68k-unknown-amigaos/3.4.6/../../../../m68k-unknown-amigaos/lib/libnet.a(socket_check_daemon.o)
                0x0033d414                ___check_daemon_startup
 .data          0x0033d418        0x4 /opt/netsurf/m68k-unknown-amigaos/cross/lib/gcc/m68k-unknown-amigaos/3.4.6/../../../../m68k-unknown-amigaos/lib/libnet.a(socket_isdaemon.o)
                0x0033d418                ___is_daemon
                0x0033fa42                ___a4_init = 0x7ffe
                0x0033d41c                __edata = .
                0x000059d8                ___data_size = SIZEOF (.data)

.bss            0x0033d41c    0x318a4
                0x0033d41c                __bss_start = .
 *(.bss)
 .bss           0x0033d41c        0xc build-newer-morphos/content_fetch.o
 .bss           0x0033d428      0x3f0 build-newer-morphos/content_fetchcache.o
 .bss           0x0033d818      0x278 build-newer-morphos/content_fetchers_fetch_curl.o
 .bss           0x0033da90        0x8 build-newer-morphos/content_fetchers_fetch_data.o
 .bss           0x0033da98       0x78 build-newer-morphos/content_urldb.o
 .bss           0x0033db10        0x8 build-newer-morphos/css_parser.o
 .bss           0x0033db18    0x24664 build-newer-morphos/desktop_knockout.o
 .bss           0x0036217c        0x4 build-newer-morphos/desktop_netsurf.o
 .bss           0x00362180       0x10 build-newer-morphos/desktop_print.o
 .bss           0x00362190        0x4 build-newer-morphos/desktop_selection.o
 .bss           0x00362194        0x4 build-newer-morphos/desktop_tree.o
 .bss           0x00362198       0xc8 build-newer-morphos/image_jpeg.o
 .bss           0x00362260        0x4 build-newer-morphos/mui_addressbarclass.o
 .bss           0x00362264        0x4 build-newer-morphos/mui_applicationclass.o
 .bss           0x00362268        0x4 build-newer-morphos/mui_browserclass.o
 .bss           0x0036226c        0x4 build-newer-morphos/mui_clipboard.o
 .bss           0x00362270       0x40 build-newer-morphos/mui_cookies.o
 .bss           0x003622b0       0x34 build-newer-morphos/mui_downloadwindowclass.o
 .bss           0x003622e4      0x400 build-newer-morphos/mui_fetch_file.o
 .bss           0x003626e4        0x4 build-newer-morphos/mui_findtextclass.o
 .bss           0x003626e8       0x94 build-newer-morphos/mui_font.o
 .bss           0x0036277c        0xc build-newer-morphos/mui_gui.o
 .bss           0x00362788      0x108 build-newer-morphos/mui_history.o
 .bss           0x00362890        0x4 build-newer-morphos/mui_historylistclass.o
 .bss           0x00362894        0x4 build-newer-morphos/mui_historypopstringclass.o
 .bss           0x00362898        0x4 build-newer-morphos/mui_hotlistwindowclass.o
 .bss           0x0036289c        0x4 build-newer-morphos/mui_loginwindowclass.o
 .bss           0x003628a0       0x30 build-newer-morphos/mui_methodstack.o
 .bss           0x003628d0        0x4 build-newer-morphos/mui_navigationbarclass.o
 .bss           0x003628d4        0x8 build-newer-morphos/mui_netsurf.o
 .bss           0x003628dc        0x4 build-newer-morphos/mui_pdfclass.o
 .bss           0x003628e0       0x10 build-newer-morphos/mui_plotters.o
 .bss           0x003628f0        0x4 build-newer-morphos/mui_popstringclass.o
 .bss           0x003628f4        0x4 build-newer-morphos/mui_quicklinkbuttongroupclass.o
 .bss           0x003628f8        0x4 build-newer-morphos/mui_quicklinkgroupclass.o
 .bss           0x003628fc        0x4 build-newer-morphos/mui_quicklinkparentgroupclass.o
 .bss           0x00362900        0x4 build-newer-morphos/mui_save_complete.o
 .bss           0x00362904       0x30 build-newer-morphos/mui_schedule.o
 .bss           0x00362934       0x2c build-newer-morphos/mui_search.o
 .bss           0x00362960        0x4 build-newer-morphos/mui_searchbarclass.o
 .bss           0x00362964        0x4 build-newer-morphos/mui_titleclass.o
 .bss           0x00362968        0x4 build-newer-morphos/mui_titlelabelclass.o
 .bss           0x0036296c        0x4 build-newer-morphos/mui_toolbuttonclass.o
 .bss           0x00362970       0x38 build-newer-morphos/mui_transferanimclass.o
 .bss           0x003629a8        0x4 build-newer-morphos/mui_windowclass.o
 .bss           0x003629ac        0x4 build-newer-morphos/render_box.o
 .bss           0x003629b0       0x14 build-newer-morphos/render_list.o
 .bss           0x003629c4      0x2a0 build-newer-morphos/render_textplain.o
 .bss           0x00362c64      0x110 build-newer-morphos/utils_filename.o
 .bss           0x00362d74        0x4 build-newer-morphos/utils_messages.o
 .bss           0x00362d78        0x8 build-newer-morphos/utils_talloc.o
 .bss           0x00362d80        0x4 build-newer-morphos/utils_useragent.o
 .bss           0x00362d84       0x44 build-newer-morphos/utils_utf8.o
 .bss           0x00362dc8       0x5c build-newer-morphos/utils_utils.o
 .bss           0x00362e24       0x20 /mnt/e/usr/local/amiga/m68k-amigaos/clib/extra/ns-lib/libxml2.a(encoding.o)
 .bss           0x00362e44        0x4 /mnt/e/usr/local/amiga/m68k-amigaos/clib/extra/ns-lib/libxml2.a(error.o)
 .bss           0x00362e48        0x8 /mnt/e/usr/local/amiga/m68k-amigaos/clib/extra/ns-lib/libxml2.a(parser.o)
 .bss           0x00362e50        0x4 /mnt/e/usr/local/amiga/m68k-amigaos/clib/extra/ns-lib/libxml2.a(tree.o)
 .bss           0x00362e54      0x1f0 /mnt/e/usr/local/amiga/m68k-amigaos/clib/extra/ns-lib/libxml2.a(xmlIO.o)
 .bss           0x00363044       0x20 /mnt/e/usr/local/amiga/m68k-amigaos/clib/extra/ns-lib/libxml2.a(xmlmemory.o)
 .bss           0x00363064        0x8 /mnt/e/usr/local/amiga/m68k-amigaos/clib/extra/ns-lib/libxml2.a(xlink.o)
 .bss           0x0036306c      0x194 /mnt/e/usr/local/amiga/m68k-amigaos/clib/extra/ns-lib/libxml2.a(HTMLparser.o)
 .bss           0x00363200       0x2c /mnt/e/usr/local/amiga/m68k-amigaos/clib/extra/ns-lib/libxml2.a(xpath.o)
 .bss           0x0036322c        0xc /mnt/e/usr/local/amiga/m68k-amigaos/clib/extra/ns-lib/libxml2.a(nanohttp.o)
 .bss           0x00363238       0x18 /mnt/e/usr/local/amiga/m68k-amigaos/clib/extra/ns-lib/libxml2.a(nanoftp.o)
 .bss           0x00363250      0x7ec /mnt/e/usr/local/amiga/m68k-amigaos/clib/extra/ns-lib/libxml2.a(catalog.o)
 .bss           0x00363a3c       0x3c /mnt/e/usr/local/amiga/m68k-amigaos/clib/extra/ns-lib/libxml2.a(globals.o)
 .bss           0x00363a78        0x4 /mnt/e/usr/local/amiga/m68k-amigaos/clib/extra/ns-lib/libxml2.a(threads.o)
 .bss           0x00363a7c       0x48 /mnt/e/usr/local/amiga/m68k-amigaos/clib/extra/ns-lib/libxml2.a(c14n.o)
 .bss           0x00363ac4       0xc0 /mnt/e/usr/local/amiga/m68k-amigaos/clib/extra/ns-lib/libxml2.a(xmlschemastypes.o)
 .bss           0x00363b84        0x8 /mnt/e/usr/local/amiga/m68k-amigaos/clib/extra/ns-lib/libxml2.a(relaxng.o)
 .bss           0x00363b8c        0xc /mnt/e/usr/local/amiga/m68k-amigaos/clib/extra/ns-lib/libxml2.a(dict.o)
 .bss           0x00363b98       0x34 /mnt/e/usr/local/amiga/m68k-amigaos/clib/extra/ns-lib/libxml2.a(legacy.o)
 .bss           0x00363bcc     0xa040 lib/libnsgif-0.0.3.a(src_libnsgif.o)
 .bss           0x0036dc0c      0x100 /opt/netsurf/m68k-unknown-amigaos/env/lib/libtre.a(tre-compile.o)
 .bss           0x0036dd0c        0x8 /opt/netsurf/m68k-unknown-amigaos/env/lib/libcurl.a(libcurl_la-easy.o)
 .bss           0x0036dd14      0x19c /opt/netsurf/m68k-unknown-amigaos/env/lib/libcurl.a(libcurl_la-version.o)
 .bss           0x0036deb0       0xd4 /opt/netsurf/m68k-unknown-amigaos/env/lib/libcurl.a(libcurl_la-vtls.o)
 .bss           0x0036df84        0x4 /opt/netsurf/m68k-unknown-amigaos/env/lib/libcurl.a(libcurl_la-keylog.o)
 .bss           0x0036df88        0x4 lib/libhubbub-0.0.2.a(src_treebuilder_tokeniser_entities.o)
 .bss           0x0036df8c        0x8 lib/libhubbub-0.0.2.a(src_treebuilder_in_head.o)
 .bss           0x0036df94       0x10 lib/libparserutils-0.0.1.a(src_input_inputstream.o)
 .bss           0x0036dfa4      0x16c lib/libparserutils-0.0.1.a(src_charset_aliases.o)
 .bss           0x0036e110        0x4 lib/libparserutils-0.0.1.a(src_charset_codecs_codec_ascii.o)
 .bss           0x0036e114       0x18 /opt/netsurf/m68k-unknown-amigaos/cross/lib/gcc/m68k-unknown-amigaos/3.4.6/../../../../m68k-unknown-amigaos/lib/libunix.a(stdio_file_init.o)
 .bss           0x0036e12c        0x4 /opt/netsurf/m68k-unknown-amigaos/cross/lib/gcc/m68k-unknown-amigaos/3.4.6/../../../../m68k-unknown-amigaos/lib/libunix.a(stdio_record_locking.o)
 .bss           0x0036e130        0xc /opt/netsurf/m68k-unknown-amigaos/cross/lib/gcc/m68k-unknown-amigaos/3.4.6/../../../../m68k-unknown-amigaos/lib/libunix.a(unistd_wildcard_expand.o)
 .bss           0x0036e13c        0x4 /opt/netsurf/m68k-unknown-amigaos/cross/lib/gcc/m68k-unknown-amigaos/3.4.6/../../../../m68k-unknown-amigaos/lib/libc.a(stdlib_assertion_failure.o)
 .bss           0x0036e140       0x24 /opt/netsurf/m68k-unknown-amigaos/cross/lib/gcc/m68k-unknown-amigaos/3.4.6/../../../../m68k-unknown-amigaos/lib/libc.a(time_localtime.o)
 .bss           0x0036e164      0x194 /opt/netsurf/m68k-unknown-amigaos/cross/lib/gcc/m68k-unknown-amigaos/3.4.6/../../../../m68k-unknown-amigaos/lib/libc.a(stdlib_atexit.o)
 .bss           0x0036e2f8       0x50 /opt/netsurf/m68k-unknown-amigaos/cross/lib/gcc/m68k-unknown-amigaos/3.4.6/../../../../m68k-unknown-amigaos/lib/libc.a(string_strerror.o)
 .bss           0x0036e348        0x4 /opt/netsurf/m68k-unknown-amigaos/cross/lib/gcc/m68k-unknown-amigaos/3.4.6/../../../../m68k-unknown-amigaos/lib/libc.a(string_strtok.o)
 .bss           0x0036e34c       0x24 /opt/netsurf/m68k-unknown-amigaos/cross/lib/gcc/m68k-unknown-amigaos/3.4.6/../../../../m68k-unknown-amigaos/lib/libc.a(time_gmtime.o)
 .bss           0x0036e370      0x100 /opt/netsurf/m68k-unknown-amigaos/cross/lib/gcc/m68k-unknown-amigaos/3.4.6/../../../../m68k-unknown-amigaos/lib/libc.a(stdlib_getenv.o)
 .bss           0x0036e470      0x400 /opt/netsurf/m68k-unknown-amigaos/cross/lib/gcc/m68k-unknown-amigaos/3.4.6/../../../../m68k-unknown-amigaos/lib/libc.a(libgen_basename.o)
 .bss           0x0036e870        0x8 /opt/netsurf/m68k-unknown-amigaos/cross/lib/gcc/m68k-unknown-amigaos/3.4.6/../../../../m68k-unknown-amigaos/lib/libc.a(stdlib_constructor_begin.o)
 .bss           0x0036e878        0x4 /opt/netsurf/m68k-unknown-amigaos/cross/lib/gcc/m68k-unknown-amigaos/3.4.6/../../../../m68k-unknown-amigaos/lib/libc.a(stdlib_program_name.o)
 .bss           0x0036e87c       0x28 /opt/netsurf/m68k-unknown-amigaos/cross/lib/gcc/m68k-unknown-amigaos/3.4.6/../../../../m68k-unknown-amigaos/lib/libc.a(time_asctime.o)
 .bss           0x0036e8a4        0x4 /opt/netsurf/m68k-unknown-amigaos/cross/lib/gcc/m68k-unknown-amigaos/3.4.6/../../../../m68k-unknown-amigaos/lib/libc.a(signal_raise.o)
 .bss           0x0036e8a8        0x4 /opt/netsurf/m68k-unknown-amigaos/cross/lib/gcc/m68k-unknown-amigaos/3.4.6/../../../../m68k-unknown-amigaos/lib/libc.a(stdlib_termination_message.o)
 *(COMMON)
 COMMON         0x0036e8ac        0x2 build-newer-morphos/content_fetch.o
                                  0x0 (size before relaxing)
                0x0036e8ac                _fetch_active
 *fill*         0x0036e8ae        0x2 00
 COMMON         0x0036e8b0        0x4 build-newer-morphos/content_fetchers_fetch_curl.o
                                  0x0 (size before relaxing)
                0x0036e8b0                _fetch_curl_multi
 COMMON         0x0036e8b4      0x2fc build-newer-morphos/desktop_browser.o
                                  0x0 (size before relaxing)
                0x0036e8b4                _browser_window_href_content
                0x0036eba8                _browser_reformat_pending
                0x0036ebac                _current_redraw_browser
 COMMON         0x0036ebb0       0x14 build-newer-morphos/desktop_options.o
                                  0x0 (size before relaxing)
                0x0036ebb0                _option_font_mono
                0x0036ebb4                _option_font_serif
                0x0036ebb8                _option_font_fantasy
                0x0036ebbc                _option_font_cursive
                0x0036ebc0                _option_font_sans
 COMMON         0x0036ebc4       0x1a build-newer-morphos/desktop_textinput.o
                                  0x0 (size before relaxing)
                0x0036ebc4                _ghost_caret
 *fill*         0x0036ebde        0x2 00
 COMMON         0x0036ebe0       0x30 build-newer-morphos/mui_gui.o
                                  0x0 (size before relaxing)
                0x0036ebe0                _CyberGfxBase
                0x0036ebe4                _CodesetsBase
                0x0036ebe8                _default_stylesheet_url
                0x0036ebec                _OpenURLBase
                0x0036ebf0                _LayersBase
                0x0036ebf4                _AslBase
                0x0036ebf8                _AsyncIOBase
                0x0036ebfc                _MUIMasterBase
                0x0036ec00                _TTEngineBase
                0x0036ec04                _adblock_stylesheet_url
                0x0036ec08                _IconBase
                0x0036ec0c                _IntuitionBase
 COMMON         0x0036ec10        0x8 build-newer-morphos/mui_netsurf.o
                                  0x0 (size before relaxing)
                0x0036ec10                _application
                0x0036ec14                _thread_count
 COMMON         0x0036ec18       0x54 build-newer-morphos/mui_plotters.o
                                  0x0 (size before relaxing)
                0x0036ec18                _plot
                0x0036ec58                _renderinfo
 COMMON         0x0036ec6c        0x8 build-newer-morphos/mui_save_complete.o
                                  0x0 (size before relaxing)
                0x0036ec6c                _save_complete_import_re
 COMMON         0x0036ec74        0x4 build-newer-morphos/mui_schedule.o
                                  0x0 (size before relaxing)
                0x0036ec74                _schedule_sig
 COMMON         0x0036ec78        0x4 build-newer-morphos/mui_search.o
                                  0x0 (size before relaxing)
                0x0036ec78                _search_current_window
 COMMON         0x0036ec7c       0x10 build-newer-morphos/utils_url.o
                                  0x0 (size before relaxing)
                0x0036ec7c                _url_re
                0x0036ec84                _url_up_re
 COMMON         0x0036ec8c       0x34 /mnt/e/usr/local/amiga/m68k-amigaos/clib/extra/ns-lib/libxml2.a(globals.o)
                                  0x0 (size before relaxing)
                0x0036ec8c                _xmlLastError
                0x0036ecc0                __end = .
                0x000318a4                ___bss_size = SIZEOF (.bss)

.data_chip
 *(.data_chip)

.bss_chip
 *(.bss_chip)
OUTPUT(NetSurf amiga)
